Archive member included because of file (symbol)

contiki-sky.a(contiki-sky-pla)
                              obj_sky/contiki-sky-main.o (init_platform)
contiki-sky.a(button-sensor.o)
                              contiki-sky.a(contiki-sky-pla) (button_sensor)
contiki-sky.a(ds2411.o)       obj_sky/contiki-sky-main.o (ds2411_init)
contiki-sky.a(xmem.o)         obj_sky/contiki-sky-main.o (xmem_init)
contiki-sky.a(node-id.o)      obj_sky/contiki-sky-main.o (node_id_restore)
contiki-sky.a(sensors.o)      contiki-sky.a(button-sensor.o) (sensors_changed)
contiki-sky.a(cc2420.o)       obj_sky/contiki-sky-main.o (cc2420_set_pan_addr)
contiki-sky.a(cc2420-arch.o)  contiki-sky.a(cc2420.o) (cc2420_arch_init)
contiki-sky.a(uart1.o)        obj_sky/contiki-sky-main.o (uart1_active)
contiki-sky.a(uart1-putchar.o)
                              obj_sky/contiki-sky-main.o (putchar)
contiki-sky.a(msp430.o)       contiki-sky.a(uart1.o) (msp430_add_lpm_req)
contiki-sky.a(clock.o)        obj_sky/contiki-sky-main.o (clock_init)
contiki-sky.a(leds.o)         obj_sky/contiki-sky-main.o (leds_init)
contiki-sky.a(leds-arch.o)    contiki-sky.a(leds.o) (leds_arch_init)
contiki-sky.a(watchdog.o)     obj_sky/contiki-sky-main.o (watchdog_start)
contiki-sky.a(rtimer-arch.o)  obj_sky/contiki-sky-main.o (rtimer_arch_now)
contiki-sky.a(autostart.o)    obj_sky/contiki-sky-main.o (autostart_start)
contiki-sky.a(energest.o)     obj_sky/contiki-sky-main.o (energest_init)
contiki-sky.a(ctimer.o)       obj_sky/contiki-sky-main.o (ctimer_init)
contiki-sky.a(etimer.o)       contiki-sky.a(clock.o) (etimer_request_poll)
contiki-sky.a(process.o)      contiki-sky.a(ctimer.o) (process_current)
contiki-sky.a(rtimer.o)       obj_sky/contiki-sky-main.o (rtimer_init)
contiki-sky.a(timer.o)        obj_sky/contiki-sky-main.o (timer_set)
contiki-sky.a(serial-line.o)  obj_sky/contiki-sky-main.o (serial_line_input_byte)
contiki-sky.a(list.o)         contiki-sky.a(ctimer.o) (list_init)
contiki-sky.a(random.o)       obj_sky/contiki-sky-main.o (random_init)
contiki-sky.a(ringbuf.o)      contiki-sky.a(serial-line.o) (ringbuf_init)
contiki-sky.a(rime.o)         obj_sky/contiki-sky-main.o (rime_driver)
contiki-sky.a(broadcast-annou)
                              contiki-sky.a(rime.o) (broadcast_announcement_init)
contiki-sky.a(abc.o)          contiki-sky.a(rime.o) (abc_input)
contiki-sky.a(chameleon.o)    contiki-sky.a(rime.o) (chameleon_init)
contiki-sky.a(channel.o)      contiki-sky.a(chameleon.o) (channel_init)
contiki-sky.a(broadcast.o)    contiki-sky.a(broadcast-annou) (broadcast_open)
contiki-sky.a(announcement.o)
                              contiki-sky.a(rime.o) (announcement_init)
contiki-sky.a(csma.o)         obj_sky/contiki-sky-main.o (csma_driver)
contiki-sky.a(mac.o)          contiki-sky.a(csma.o) (mac_call_sent_callback)
contiki-sky.a(queuebuf.o)     contiki-sky.a(rime.o) (queuebuf_init)
contiki-sky.a(packetbuf.o)    contiki-sky.a(cc2420.o) (packetbuf_set_datalen)
contiki-sky.a(linkaddr.o)     obj_sky/contiki-sky-main.o (linkaddr_copy)
contiki-sky.a(contikimac.o)   obj_sky/contiki-sky-main.o (contikimac_driver)
contiki-sky.a(contikimac-fram)
                              contiki-sky.a(contikimac.o) (contikimac_framer)
contiki-sky.a(nullsec.o)      obj_sky/contiki-sky-main.o (nullsec_driver)
contiki-sky.a(spi.o)          contiki-sky.a(xmem.o) (spi_init)
contiki-sky.a(compower.o)     contiki-sky.a(contikimac.o) (compower_accumulate)
contiki-sky.a(memb.o)         contiki-sky.a(csma.o) (memb_init)
contiki-sky.a(chameleon-bitop)
                              contiki-sky.a(chameleon.o) (chameleon_bitopt)
contiki-sky.a(mac-sequence.o)
                              contiki-sky.a(contikimac.o) (mac_sequence_is_duplicate)
contiki-sky.a(framer-802154.o)
                              contiki-sky.a(contikimac-fram) (framer_802154)
contiki-sky.a(frame802154.o)  contiki-sky.a(framer-802154.o) (frame802154_get_pan_id)
/usr/lib/gcc/msp430/4.6.3/mmpy-16/libgcc.a(_mulsi3.o)
                              contiki-sky.a(csma.o) (__mulsi3)
/usr/lib/gcc/msp430/4.6.3/mmpy-16/libgcc.a(_udivmod32.o)
                              obj_sky/contiki-sky-main.o (__udivsi3)
/usr/lib/gcc/msp430/4.6.3/../../../../msp430/lib/mmpy-16/libc.a(strncmp.o)
                              contiki-sky.a(sensors.o) (strncmp)
/usr/lib/gcc/msp430/4.6.3/../../../../msp430/lib/mmpy-16/libc.a(memcmp.o)
                              contiki-sky.a(linkaddr.o) (memcmp)
/usr/lib/gcc/msp430/4.6.3/../../../../msp430/lib/mmpy-16/libc.a(memcpy.o)
                              contiki-sky.a(broadcast-annou) (memcpy)
/usr/lib/gcc/msp430/4.6.3/../../../../msp430/lib/mmpy-16/libc.a(memset.o)
                              obj_sky/contiki-sky-main.o (memset)
/usr/lib/gcc/msp430/4.6.3/../../../../msp430/lib/mmpy-16/libc.a(printf.o)
                              obj_sky/contiki-sky-main.o (printf)
/usr/lib/gcc/msp430/4.6.3/../../../../msp430/lib/mmpy-16/libc.a(vuprintf.o)
                              /usr/lib/gcc/msp430/4.6.3/../../../../msp430/lib/mmpy-16/libc.a(printf.o) (vuprintf)
/usr/lib/gcc/msp430/4.6.3/../../../../msp430/lib/mmpy-16/libc.a(puts.o)
                              hello-world-ctimer.co (puts)
/usr/lib/gcc/msp430/4.6.3/../../../../msp430/lib/mmpy-16/libc.a(rand.o)
                              contiki-sky.a(random.o) (rand)
/usr/lib/gcc/msp430/4.6.3/mmpy-16/libgcc.a(_udivmod16.o)
                              /usr/lib/gcc/msp430/4.6.3/../../../../msp430/lib/mmpy-16/libc.a(vuprintf.o) (__udivhi3)
/usr/lib/gcc/msp430/4.6.3/mmpy-16/libgcc.a(_udivmod64.o)
                              /usr/lib/gcc/msp430/4.6.3/../../../../msp430/lib/mmpy-16/libc.a(vuprintf.o) (__udivdi3)
/usr/lib/gcc/msp430/4.6.3/mmpy-16/libcrt0.a(_reset_vector__.o)
                              (_reset_vector__)
/usr/lib/gcc/msp430/4.6.3/mmpy-16/libcrt0.a(__watchdog_support.o)
                              /usr/lib/gcc/msp430/4.6.3/mmpy-16/libcrt0.a(_reset_vector__.o) (__watchdog_support)
/usr/lib/gcc/msp430/4.6.3/mmpy-16/libcrt0.a(__init_stack.o)
                              /usr/lib/gcc/msp430/4.6.3/mmpy-16/libcrt0.a(_reset_vector__.o) (__init_stack)
/usr/lib/gcc/msp430/4.6.3/mmpy-16/libcrt0.a(__low_level_init.o)
                              /usr/lib/gcc/msp430/4.6.3/mmpy-16/libcrt0.a(_reset_vector__.o) (__low_level_init)
/usr/lib/gcc/msp430/4.6.3/mmpy-16/libcrt0.a(_copy_data.o)
                              /usr/lib/gcc/msp430/4.6.3/mmpy-16/libcrt0.a(_reset_vector__.o) (__do_copy_data)
/usr/lib/gcc/msp430/4.6.3/mmpy-16/libcrt0.a(_clear_bss.o)
                              /usr/lib/gcc/msp430/4.6.3/mmpy-16/libcrt0.a(_reset_vector__.o) (__do_clear_bss)
/usr/lib/gcc/msp430/4.6.3/mmpy-16/libcrt0.a(__stop_progExec__.o)
                              /usr/lib/gcc/msp430/4.6.3/mmpy-16/libcrt0.a(_reset_vector__.o) (__stop_progExec__)
/usr/lib/gcc/msp430/4.6.3/mmpy-16/libcrt0.a(_endless_loop__.o)
                              /usr/lib/gcc/msp430/4.6.3/mmpy-16/libcrt0.a(_reset_vector__.o) (_endless_loop__)
/usr/lib/gcc/msp430/4.6.3/mmpy-16/libcrt0.a(_unexpected_.o)
                              /usr/lib/gcc/msp430/4.6.3/mmpy-16/crt0ivtbl16.o (_unexpected_)

Allocating common symbols
Common symbol       size              file

compower_idle_activity
                    0x8               contiki-sky.a(compower.o)
energest_total_time
                    0x30              contiki-sky.a(energest.o)
cc2420_last_rssi    0x1               contiki-sky.a(cc2420.o)
energest_total_count
                    0x2               contiki-sky.a(energest.o)
cc2420_sfd_start_time
                    0x2               contiki-sky.a(cc2420.o)
cc2420_time_of_departure
                    0x2               contiki-sky.a(cc2420.o)
cc2420_time_of_arrival
                    0x2               contiki-sky.a(cc2420.o)
energest_current_mode
                    0xc               contiki-sky.a(energest.o)
packetbuf_addrs     0x8               contiki-sky.a(packetbuf.o)
process_maxevents   0x1               contiki-sky.a(process.o)
cc2420_last_correlation
                    0x1               contiki-sky.a(cc2420.o)
linkaddr_node_addr  0x2               contiki-sky.a(linkaddr.o)
cc2420_authority_level_of_sender
                    0x2               contiki-sky.a(cc2420.o)
packetbuf_attrs     0x34              contiki-sky.a(packetbuf.o)
msp430_dco_required
                    0x2               contiki-sky.a(msp430.o)
cc2420_sfd_counter  0x1               contiki-sky.a(cc2420.o)
energest_current_time
                    0x18              contiki-sky.a(energest.o)
sensors_flags       0x2               contiki-sky.a(contiki-sky-pla)
serial_line_event_message
                    0x1               contiki-sky.a(serial-line.o)
cc2420_sfd_end_time
                    0x2               contiki-sky.a(cc2420.o)
sensors_event       0x1               contiki-sky.a(sensors.o)
ds2411_id           0x8               contiki-sky.a(ds2411.o)

Discarded input sections

 .data          0x0000000000000000        0x0 /usr/lib/gcc/msp430/4.6.3/mmpy-16/crt0ivtbl16.o
 .bss           0x0000000000000000        0x0 /usr/lib/gcc/msp430/4.6.3/mmpy-16/crt0ivtbl16.o
 .text.crt0     0x0000000000000000        0x0 /usr/lib/gcc/msp430/4.6.3/mmpy-16/crt0ivtbl16.o
 .text          0x0000000000000000        0x0 hello-world-ctimer.co
 .text          0x0000000000000000        0x0 obj_sky/contiki-sky-main.o
 .data          0x0000000000000000        0x0 obj_sky/contiki-sky-main.o
 .text.uip_log  0x0000000000000000        0x6 obj_sky/contiki-sky-main.o
 .text          0x0000000000000000        0x0 contiki-sky.a(contiki-sky-pla)
 .bss           0x0000000000000000        0x0 contiki-sky.a(contiki-sky-pla)
 .text          0x0000000000000000        0x0 contiki-sky.a(button-sensor.o)
 .data          0x0000000000000000        0x0 contiki-sky.a(button-sensor.o)
 .text          0x0000000000000000        0x0 contiki-sky.a(ds2411.o)
 .data          0x0000000000000000        0x0 contiki-sky.a(ds2411.o)
 .bss           0x0000000000000000        0x0 contiki-sky.a(ds2411.o)
 .text          0x0000000000000000        0x0 contiki-sky.a(xmem.o)
 .data          0x0000000000000000        0x0 contiki-sky.a(xmem.o)
 .bss           0x0000000000000000        0x0 contiki-sky.a(xmem.o)
 .text.write_enable
                0x0000000000000000       0x2a contiki-sky.a(xmem.o)
 .text.xmem_pwrite
                0x0000000000000000      0x150 contiki-sky.a(xmem.o)
 .text.xmem_erase
                0x0000000000000000       0xae contiki-sky.a(xmem.o)
 .text          0x0000000000000000        0x0 contiki-sky.a(node-id.o)
 .data          0x0000000000000000        0x0 contiki-sky.a(node-id.o)
 .text.node_id_burn
                0x0000000000000000       0x36 contiki-sky.a(node-id.o)
 .text          0x0000000000000000        0x0 contiki-sky.a(sensors.o)
 .text.sensors_first
                0x0000000000000000        0x6 contiki-sky.a(sensors.o)
 .text.sensors_next
                0x0000000000000000       0x2c contiki-sky.a(sensors.o)
 .text.sensors_find
                0x0000000000000000       0x4e contiki-sky.a(sensors.o)
 .text          0x0000000000000000        0x0 contiki-sky.a(cc2420.o)
 .text.cc2420_get_channel
                0x0000000000000000        0x6 contiki-sky.a(cc2420.o)
 .text          0x0000000000000000        0x0 contiki-sky.a(cc2420-arch.o)
 .data          0x0000000000000000        0x0 contiki-sky.a(cc2420-arch.o)
 .bss           0x0000000000000000        0x0 contiki-sky.a(cc2420-arch.o)
 .text          0x0000000000000000        0x0 contiki-sky.a(uart1.o)
 .data          0x0000000000000000        0x0 contiki-sky.a(uart1.o)
 .text          0x0000000000000000        0x0 contiki-sky.a(uart1-putchar.o)
 .data          0x0000000000000000        0x0 contiki-sky.a(uart1-putchar.o)
 .bss           0x0000000000000000        0x0 contiki-sky.a(uart1-putchar.o)
 .text          0x0000000000000000        0x0 contiki-sky.a(msp430.o)
 .bss           0x0000000000000000        0x0 contiki-sky.a(msp430.o)
 .text.msp430_remove_lpm_req
                0x0000000000000000        0xc contiki-sky.a(msp430.o)
 .text.sbrk     0x0000000000000000       0x5a contiki-sky.a(msp430.o)
 .text          0x0000000000000000        0x0 contiki-sky.a(clock.o)
 .data          0x0000000000000000        0x0 contiki-sky.a(clock.o)
 .text.clock_set
                0x0000000000000000       0x16 contiki-sky.a(clock.o)
 .text.clock_fine_max
                0x0000000000000000        0x6 contiki-sky.a(clock.o)
 .text.clock_fine
                0x0000000000000000        0xc contiki-sky.a(clock.o)
 .text.clock_wait
                0x0000000000000000       0x34 contiki-sky.a(clock.o)
 .text.clock_set_seconds
                0x0000000000000000       0x1c contiki-sky.a(clock.o)
 .text.clock_seconds
                0x0000000000000000       0x1a contiki-sky.a(clock.o)
 .text.clock_counter
                0x0000000000000000        0xe contiki-sky.a(clock.o)
 .text          0x0000000000000000        0x0 contiki-sky.a(leds.o)
 .data          0x0000000000000000        0x0 contiki-sky.a(leds.o)
 .text.leds_get
                0x0000000000000000        0x6 contiki-sky.a(leds.o)
 .text.leds_set
                0x0000000000000000        0x6 contiki-sky.a(leds.o)
 .text.leds_blink
                0x0000000000000000       0x20 contiki-sky.a(leds.o)
 .text          0x0000000000000000        0x0 contiki-sky.a(leds-arch.o)
 .data          0x0000000000000000        0x0 contiki-sky.a(leds-arch.o)
 .bss           0x0000000000000000        0x0 contiki-sky.a(leds-arch.o)
 .text.leds_arch_get
                0x0000000000000000       0x30 contiki-sky.a(leds-arch.o)
 .text          0x0000000000000000        0x0 contiki-sky.a(watchdog.o)
 .data          0x0000000000000000        0x0 contiki-sky.a(watchdog.o)
 .text.watchdog_reboot
                0x0000000000000000        0x6 contiki-sky.a(watchdog.o)
 .text          0x0000000000000000        0x0 contiki-sky.a(rtimer-arch.o)
 .data          0x0000000000000000        0x0 contiki-sky.a(rtimer-arch.o)
 .bss           0x0000000000000000        0x0 contiki-sky.a(rtimer-arch.o)
 .text          0x0000000000000000        0x0 contiki-sky.a(autostart.o)
 .data          0x0000000000000000        0x0 contiki-sky.a(autostart.o)
 .bss           0x0000000000000000        0x0 contiki-sky.a(autostart.o)
 .text.autostart_exit
                0x0000000000000000       0x14 contiki-sky.a(autostart.o)
 .text          0x0000000000000000        0x0 contiki-sky.a(energest.o)
 .data          0x0000000000000000        0x0 contiki-sky.a(energest.o)
 .bss           0x0000000000000000        0x0 contiki-sky.a(energest.o)
 .text.energest_leveldevice_leveltime
                0x0000000000000000        0x6 contiki-sky.a(energest.o)
 .text          0x0000000000000000        0x0 contiki-sky.a(ctimer.o)
 .text.ctimer_restart
                0x0000000000000000       0x30 contiki-sky.a(ctimer.o)
 .text.ctimer_expired
                0x0000000000000000       0x32 contiki-sky.a(ctimer.o)
 .text          0x0000000000000000        0x0 contiki-sky.a(etimer.o)
 .text.etimer_reset_with_new_interval
                0x0000000000000000       0x26 contiki-sky.a(etimer.o)
 .text.etimer_restart
                0x0000000000000000       0x12 contiki-sky.a(etimer.o)
 .text.etimer_adjust
                0x0000000000000000       0x1a contiki-sky.a(etimer.o)
 .text.etimer_expired
                0x0000000000000000        0xe contiki-sky.a(etimer.o)
 .text.etimer_expiration_time
                0x0000000000000000       0x14 contiki-sky.a(etimer.o)
 .text.etimer_start_time
                0x0000000000000000        0x8 contiki-sky.a(etimer.o)
 .text          0x0000000000000000        0x0 contiki-sky.a(process.o)
 .data          0x0000000000000000        0x0 contiki-sky.a(process.o)
 .text.process_exit
                0x0000000000000000        0xa contiki-sky.a(process.o)
 .text.process_is_running
                0x0000000000000000        0xe contiki-sky.a(process.o)
 .text          0x0000000000000000        0x0 contiki-sky.a(rtimer.o)
 .data          0x0000000000000000        0x0 contiki-sky.a(rtimer.o)
 .text          0x0000000000000000        0x0 contiki-sky.a(timer.o)
 .data          0x0000000000000000        0x0 contiki-sky.a(timer.o)
 .bss           0x0000000000000000        0x0 contiki-sky.a(timer.o)
 .text.timer_restart
                0x0000000000000000       0x14 contiki-sky.a(timer.o)
 .text.timer_remaining
                0x0000000000000000       0x28 contiki-sky.a(timer.o)
 .text          0x0000000000000000        0x0 contiki-sky.a(serial-line.o)
 .text          0x0000000000000000        0x0 contiki-sky.a(list.o)
 .data          0x0000000000000000        0x0 contiki-sky.a(list.o)
 .bss           0x0000000000000000        0x0 contiki-sky.a(list.o)
 .text.list_copy
                0x0000000000000000        0x6 contiki-sky.a(list.o)
 .text.list_chop
                0x0000000000000000       0x24 contiki-sky.a(list.o)
 .text.list_pop
                0x0000000000000000        0xe contiki-sky.a(list.o)
 .text.list_insert
                0x0000000000000000       0x16 contiki-sky.a(list.o)
 .text          0x0000000000000000        0x0 contiki-sky.a(random.o)
 .data          0x0000000000000000        0x0 contiki-sky.a(random.o)
 .bss           0x0000000000000000        0x0 contiki-sky.a(random.o)
 .text          0x0000000000000000        0x0 contiki-sky.a(ringbuf.o)
 .data          0x0000000000000000        0x0 contiki-sky.a(ringbuf.o)
 .bss           0x0000000000000000        0x0 contiki-sky.a(ringbuf.o)
 .text.ringbuf_size
                0x0000000000000000        0x8 contiki-sky.a(ringbuf.o)
 .text.ringbuf_elements
                0x0000000000000000       0x12 contiki-sky.a(ringbuf.o)
 .text          0x0000000000000000        0x0 contiki-sky.a(rime.o)
 .data          0x0000000000000000        0x0 contiki-sky.a(rime.o)
 .text.rime_sniffer_add
                0x0000000000000000        0xc contiki-sky.a(rime.o)
 .text.rime_sniffer_remove
                0x0000000000000000        0xc contiki-sky.a(rime.o)
 .text          0x0000000000000000        0x0 contiki-sky.a(broadcast-annou)
 .data          0x0000000000000000        0x0 contiki-sky.a(broadcast-annou)
 .text.broadcast_announcement_stop
                0x0000000000000000       0x22 contiki-sky.a(broadcast-annou)
 .text.broadcast_announcement_beacon_interval
                0x0000000000000000        0xa contiki-sky.a(broadcast-annou)
 .text          0x0000000000000000        0x0 contiki-sky.a(abc.o)
 .data          0x0000000000000000        0x0 contiki-sky.a(abc.o)
 .bss           0x0000000000000000        0x0 contiki-sky.a(abc.o)
 .text.abc_close
                0x0000000000000000        0x6 contiki-sky.a(abc.o)
 .text          0x0000000000000000        0x0 contiki-sky.a(chameleon.o)
 .data          0x0000000000000000        0x0 contiki-sky.a(chameleon.o)
 .bss           0x0000000000000000        0x0 contiki-sky.a(chameleon.o)
 .text          0x0000000000000000        0x0 contiki-sky.a(channel.o)
 .data          0x0000000000000000        0x0 contiki-sky.a(channel.o)
 .text.channel_close
                0x0000000000000000        0xc contiki-sky.a(channel.o)
 .text          0x0000000000000000        0x0 contiki-sky.a(broadcast.o)
 .data          0x0000000000000000        0x0 contiki-sky.a(broadcast.o)
 .bss           0x0000000000000000        0x0 contiki-sky.a(broadcast.o)
 .text.broadcast_close
                0x0000000000000000        0x6 contiki-sky.a(broadcast.o)
 .text          0x0000000000000000        0x0 contiki-sky.a(announcement.o)
 .data          0x0000000000000000        0x0 contiki-sky.a(announcement.o)
 .text.announcement_register
                0x0000000000000000       0x3e contiki-sky.a(announcement.o)
 .text.announcement_remove
                0x0000000000000000        0xc contiki-sky.a(announcement.o)
 .text.announcement_remove_value
                0x0000000000000000       0x22 contiki-sky.a(announcement.o)
 .text.announcement_set_value
                0x0000000000000000       0x28 contiki-sky.a(announcement.o)
 .text.announcement_bump
                0x0000000000000000       0x22 contiki-sky.a(announcement.o)
 .text.announcement_listen
                0x0000000000000000        0xc contiki-sky.a(announcement.o)
 .text.announcement_register_listen_callback
                0x0000000000000000        0x6 contiki-sky.a(announcement.o)
 .text          0x0000000000000000        0x0 contiki-sky.a(csma.o)
 .text          0x0000000000000000        0x0 contiki-sky.a(mac.o)
 .data          0x0000000000000000        0x0 contiki-sky.a(mac.o)
 .bss           0x0000000000000000        0x0 contiki-sky.a(mac.o)
 .text          0x0000000000000000        0x0 contiki-sky.a(queuebuf.o)
 .text.queuebuf_numfree
                0x0000000000000000        0xa contiki-sky.a(queuebuf.o)
 .text.queuebuf_dataptr
                0x0000000000000000       0x1c contiki-sky.a(queuebuf.o)
 .text.queuebuf_datalen
                0x0000000000000000        0x8 contiki-sky.a(queuebuf.o)
 .text.queuebuf_addr
                0x0000000000000000        0xe contiki-sky.a(queuebuf.o)
 .text.queuebuf_debug_print
                0x0000000000000000        0x2 contiki-sky.a(queuebuf.o)
 .text          0x0000000000000000        0x0 contiki-sky.a(packetbuf.o)
 .data          0x0000000000000000        0x0 contiki-sky.a(packetbuf.o)
 .text.packetbuf_remaininglen
                0x0000000000000000        0xe contiki-sky.a(packetbuf.o)
 .text          0x0000000000000000        0x0 contiki-sky.a(linkaddr.o)
 .data          0x0000000000000000        0x0 contiki-sky.a(linkaddr.o)
 .bss           0x0000000000000000        0x0 contiki-sky.a(linkaddr.o)
 .text          0x0000000000000000        0x0 contiki-sky.a(contikimac.o)
 .data          0x0000000000000000        0x0 contiki-sky.a(contikimac.o)
 .text.contikimac_debug_print
                0x0000000000000000        0x4 contiki-sky.a(contikimac.o)
 .text          0x0000000000000000        0x0 contiki-sky.a(contikimac-fram)
 .data          0x0000000000000000        0x0 contiki-sky.a(contikimac-fram)
 .bss           0x0000000000000000        0x0 contiki-sky.a(contikimac-fram)
 .text          0x0000000000000000        0x0 contiki-sky.a(nullsec.o)
 .data          0x0000000000000000        0x0 contiki-sky.a(nullsec.o)
 .bss           0x0000000000000000        0x0 contiki-sky.a(nullsec.o)
 .text          0x0000000000000000        0x0 contiki-sky.a(spi.o)
 .data          0x0000000000000000        0x0 contiki-sky.a(spi.o)
 .bss           0x0000000000000000        0x2 contiki-sky.a(spi.o)
 .text          0x0000000000000000        0x0 contiki-sky.a(compower.o)
 .data          0x0000000000000000        0x0 contiki-sky.a(compower.o)
 .text.compower_init
                0x0000000000000000        0xa contiki-sky.a(compower.o)
 .text.compower_accumulate_attrs
                0x0000000000000000       0x20 contiki-sky.a(compower.o)
 .text          0x0000000000000000        0x0 contiki-sky.a(memb.o)
 .data          0x0000000000000000        0x0 contiki-sky.a(memb.o)
 .bss           0x0000000000000000        0x0 contiki-sky.a(memb.o)
 .text.memb_numfree
                0x0000000000000000       0x26 contiki-sky.a(memb.o)
 .text          0x0000000000000000        0x0 contiki-sky.a(chameleon-bitop)
 .data          0x0000000000000000        0x0 contiki-sky.a(chameleon-bitop)
 .bss           0x0000000000000000        0x0 contiki-sky.a(chameleon-bitop)
 .text          0x0000000000000000        0x0 contiki-sky.a(mac-sequence.o)
 .data          0x0000000000000000        0x0 contiki-sky.a(mac-sequence.o)
 .text          0x0000000000000000        0x0 contiki-sky.a(framer-802154.o)
 .data          0x0000000000000000        0x0 contiki-sky.a(framer-802154.o)
 .text          0x0000000000000000        0x0 contiki-sky.a(frame802154.o)
 .bss           0x0000000000000000        0x0 contiki-sky.a(frame802154.o)
 .text.frame802154_set_pan_id
                0x0000000000000000        0x6 contiki-sky.a(frame802154.o)
 .text.frame802154_check_dest_panid
                0x0000000000000000       0x3c contiki-sky.a(frame802154.o)
 .text.frame802154_extract_linkaddr
                0x0000000000000000       0x9c contiki-sky.a(frame802154.o)
 .text          0x0000000000000000        0x0 /usr/lib/gcc/msp430/4.6.3/mmpy-16/libgcc.a(_mulsi3.o)
 .data          0x0000000000000000        0x0 /usr/lib/gcc/msp430/4.6.3/mmpy-16/libgcc.a(_mulsi3.o)
 .bss           0x0000000000000000        0x0 /usr/lib/gcc/msp430/4.6.3/mmpy-16/libgcc.a(_mulsi3.o)
 .text          0x0000000000000000        0x0 /usr/lib/gcc/msp430/4.6.3/mmpy-16/libgcc.a(_udivmod32.o)
 .data          0x0000000000000000        0x0 /usr/lib/gcc/msp430/4.6.3/mmpy-16/libgcc.a(_udivmod32.o)
 .bss           0x0000000000000000        0x0 /usr/lib/gcc/msp430/4.6.3/mmpy-16/libgcc.a(_udivmod32.o)
 .text          0x0000000000000000       0x28 /usr/lib/gcc/msp430/4.6.3/../../../../msp430/lib/mmpy-16/libc.a(strncmp.o)
 .data          0x0000000000000000        0x0 /usr/lib/gcc/msp430/4.6.3/../../../../msp430/lib/mmpy-16/libc.a(strncmp.o)
 .bss           0x0000000000000000        0x0 /usr/lib/gcc/msp430/4.6.3/../../../../msp430/lib/mmpy-16/libc.a(strncmp.o)
 .data          0x0000000000000000        0x0 /usr/lib/gcc/msp430/4.6.3/../../../../msp430/lib/mmpy-16/libc.a(memcmp.o)
 .bss           0x0000000000000000        0x0 /usr/lib/gcc/msp430/4.6.3/../../../../msp430/lib/mmpy-16/libc.a(memcmp.o)
 .data          0x0000000000000000        0x0 /usr/lib/gcc/msp430/4.6.3/../../../../msp430/lib/mmpy-16/libc.a(memcpy.o)
 .bss           0x0000000000000000        0x0 /usr/lib/gcc/msp430/4.6.3/../../../../msp430/lib/mmpy-16/libc.a(memcpy.o)
 .data          0x0000000000000000        0x0 /usr/lib/gcc/msp430/4.6.3/../../../../msp430/lib/mmpy-16/libc.a(memset.o)
 .bss           0x0000000000000000        0x0 /usr/lib/gcc/msp430/4.6.3/../../../../msp430/lib/mmpy-16/libc.a(memset.o)
 .data          0x0000000000000000        0x0 /usr/lib/gcc/msp430/4.6.3/../../../../msp430/lib/mmpy-16/libc.a(printf.o)
 .bss           0x0000000000000000        0x0 /usr/lib/gcc/msp430/4.6.3/../../../../msp430/lib/mmpy-16/libc.a(printf.o)
 .data          0x0000000000000000        0x0 /usr/lib/gcc/msp430/4.6.3/../../../../msp430/lib/mmpy-16/libc.a(vuprintf.o)
 .bss           0x0000000000000000        0x0 /usr/lib/gcc/msp430/4.6.3/../../../../msp430/lib/mmpy-16/libc.a(vuprintf.o)
 .data          0x0000000000000000        0x0 /usr/lib/gcc/msp430/4.6.3/../../../../msp430/lib/mmpy-16/libc.a(puts.o)
 .bss           0x0000000000000000        0x0 /usr/lib/gcc/msp430/4.6.3/../../../../msp430/lib/mmpy-16/libc.a(puts.o)
 .bss           0x0000000000000000        0x0 /usr/lib/gcc/msp430/4.6.3/../../../../msp430/lib/mmpy-16/libc.a(rand.o)
 .text          0x0000000000000000        0x0 /usr/lib/gcc/msp430/4.6.3/mmpy-16/libgcc.a(_udivmod16.o)
 .data          0x0000000000000000        0x0 /usr/lib/gcc/msp430/4.6.3/mmpy-16/libgcc.a(_udivmod16.o)
 .bss           0x0000000000000000        0x0 /usr/lib/gcc/msp430/4.6.3/mmpy-16/libgcc.a(_udivmod16.o)
 .text          0x0000000000000000        0x0 /usr/lib/gcc/msp430/4.6.3/mmpy-16/libgcc.a(_udivmod64.o)
 .data          0x0000000000000000        0x0 /usr/lib/gcc/msp430/4.6.3/mmpy-16/libgcc.a(_udivmod64.o)
 .bss           0x0000000000000000        0x0 /usr/lib/gcc/msp430/4.6.3/mmpy-16/libgcc.a(_udivmod64.o)
 .text          0x0000000000000000        0x0 /usr/lib/gcc/msp430/4.6.3/mmpy-16/libcrt0.a(_reset_vector__.o)
 .data          0x0000000000000000        0x0 /usr/lib/gcc/msp430/4.6.3/mmpy-16/libcrt0.a(_reset_vector__.o)
 .bss           0x0000000000000000        0x0 /usr/lib/gcc/msp430/4.6.3/mmpy-16/libcrt0.a(_reset_vector__.o)
 .text          0x0000000000000000        0x0 /usr/lib/gcc/msp430/4.6.3/mmpy-16/libcrt0.a(__watchdog_support.o)
 .data          0x0000000000000000        0x0 /usr/lib/gcc/msp430/4.6.3/mmpy-16/libcrt0.a(__watchdog_support.o)
 .bss           0x0000000000000000        0x0 /usr/lib/gcc/msp430/4.6.3/mmpy-16/libcrt0.a(__watchdog_support.o)
 .text          0x0000000000000000        0x0 /usr/lib/gcc/msp430/4.6.3/mmpy-16/libcrt0.a(__init_stack.o)
 .data          0x0000000000000000        0x0 /usr/lib/gcc/msp430/4.6.3/mmpy-16/libcrt0.a(__init_stack.o)
 .bss           0x0000000000000000        0x0 /usr/lib/gcc/msp430/4.6.3/mmpy-16/libcrt0.a(__init_stack.o)
 .text          0x0000000000000000        0x0 /usr/lib/gcc/msp430/4.6.3/mmpy-16/libcrt0.a(__low_level_init.o)
 .data          0x0000000000000000        0x0 /usr/lib/gcc/msp430/4.6.3/mmpy-16/libcrt0.a(__low_level_init.o)
 .bss           0x0000000000000000        0x0 /usr/lib/gcc/msp430/4.6.3/mmpy-16/libcrt0.a(__low_level_init.o)
 .text          0x0000000000000000        0x0 /usr/lib/gcc/msp430/4.6.3/mmpy-16/libcrt0.a(_copy_data.o)
 .data          0x0000000000000000        0x0 /usr/lib/gcc/msp430/4.6.3/mmpy-16/libcrt0.a(_copy_data.o)
 .bss           0x0000000000000000        0x0 /usr/lib/gcc/msp430/4.6.3/mmpy-16/libcrt0.a(_copy_data.o)
 .text          0x0000000000000000        0x0 /usr/lib/gcc/msp430/4.6.3/mmpy-16/libcrt0.a(_clear_bss.o)
 .data          0x0000000000000000        0x0 /usr/lib/gcc/msp430/4.6.3/mmpy-16/libcrt0.a(_clear_bss.o)
 .bss           0x0000000000000000        0x0 /usr/lib/gcc/msp430/4.6.3/mmpy-16/libcrt0.a(_clear_bss.o)
 .text          0x0000000000000000        0x0 /usr/lib/gcc/msp430/4.6.3/mmpy-16/libcrt0.a(__stop_progExec__.o)
 .data          0x0000000000000000        0x0 /usr/lib/gcc/msp430/4.6.3/mmpy-16/libcrt0.a(__stop_progExec__.o)
 .bss           0x0000000000000000        0x0 /usr/lib/gcc/msp430/4.6.3/mmpy-16/libcrt0.a(__stop_progExec__.o)
 .text          0x0000000000000000        0x0 /usr/lib/gcc/msp430/4.6.3/mmpy-16/libcrt0.a(_endless_loop__.o)
 .data          0x0000000000000000        0x0 /usr/lib/gcc/msp430/4.6.3/mmpy-16/libcrt0.a(_endless_loop__.o)
 .bss           0x0000000000000000        0x0 /usr/lib/gcc/msp430/4.6.3/mmpy-16/libcrt0.a(_endless_loop__.o)
 .text          0x0000000000000000        0x0 /usr/lib/gcc/msp430/4.6.3/mmpy-16/libcrt0.a(_unexpected_.o)
 .data          0x0000000000000000        0x0 /usr/lib/gcc/msp430/4.6.3/mmpy-16/libcrt0.a(_unexpected_.o)
 .bss           0x0000000000000000        0x0 /usr/lib/gcc/msp430/4.6.3/mmpy-16/libcrt0.a(_unexpected_.o)

Memory Configuration

Name             Origin             Length             Attributes
sfr              0x0000000000000000 0x0000000000000010
peripheral_8bit  0x0000000000000010 0x00000000000000f0
peripheral_16bit 0x0000000000000100 0x0000000000000100
ram_mirror       0x0000000000000200 0x0000000000000800 xw
infomem          0x0000000000001000 0x0000000000000100
infob            0x0000000000001000 0x0000000000000080
infoa            0x0000000000001080 0x0000000000000080
ram              0x0000000000001100 0x0000000000002800 xw
rom              0x0000000000004000 0x000000000000bfe0 xr
vectors          0x000000000000ffe0 0x0000000000000020
bsl              0x0000000000000000 0x0000000000000000
infoc            0x0000000000000000 0x0000000000000000
infod            0x0000000000000000 0x0000000000000000
ram2             0x0000000000000000 0x0000000000000000 xw
usbram           0x0000000000000000 0x0000000000000000 xw
far_rom          0x0000000000000000 0x0000000000000000
*default*        0x0000000000000000 0xffffffffffffffff

Linker script and memory map

LOAD /usr/lib/gcc/msp430/4.6.3/mmpy-16/crt0ivtbl16.o
LOAD hello-world-ctimer.co
LOAD obj_sky/contiki-sky-main.o
LOAD contiki-sky.a
LOAD /usr/lib/gcc/msp430/4.6.3/mmpy-16/libgcc.a
LOAD /usr/lib/gcc/msp430/4.6.3/../../../../msp430/lib/mmpy-16/libc.a
LOAD /usr/lib/gcc/msp430/4.6.3/mmpy-16/libgcc.a
LOAD /usr/lib/gcc/msp430/4.6.3/mmpy-16/libcrt0.a
                0x0000000000000080                PROVIDE (__info_segment_size, 0x80)
                0x0000000000001000                PROVIDE (__infob, 0x1000)
                0x0000000000001080                PROVIDE (__infoa, 0x1080)
                0x0000000000000000                __IE1 = 0x0
                0x0000000000000002                __IFG1 = 0x2
                0x0000000000000004                __ME1 = 0x4
                0x0000000000000001                __IE2 = 0x1
                0x0000000000000003                __IFG2 = 0x3
                0x0000000000000005                __ME2 = 0x5
                0x0000000000000120                __WDTCTL = 0x120
                0x0000000000000130                __MPY = 0x130
                0x0000000000000132                __MPYS = 0x132
                0x0000000000000134                __MAC = 0x134
                0x0000000000000136                __MACS = 0x136
                0x0000000000000138                __OP2 = 0x138
                0x000000000000013a                __RESLO = 0x13a
                0x000000000000013c                __RESHI = 0x13c
                0x000000000000013e                __SUMEXT = 0x13e
                0x0000000000000020                __P1IN = 0x20
                0x0000000000000021                __P1OUT = 0x21
                0x0000000000000022                __P1DIR = 0x22
                0x0000000000000023                __P1IFG = 0x23
                0x0000000000000024                __P1IES = 0x24
                0x0000000000000025                __P1IE = 0x25
                0x0000000000000026                __P1SEL = 0x26
                0x0000000000000028                __P2IN = 0x28
                0x0000000000000029                __P2OUT = 0x29
                0x000000000000002a                __P2DIR = 0x2a
                0x000000000000002b                __P2IFG = 0x2b
                0x000000000000002c                __P2IES = 0x2c
                0x000000000000002d                __P2IE = 0x2d
                0x000000000000002e                __P2SEL = 0x2e
                0x0000000000000018                __P3IN = 0x18
                0x0000000000000019                __P3OUT = 0x19
                0x000000000000001a                __P3DIR = 0x1a
                0x000000000000001b                __P3SEL = 0x1b
                0x000000000000001c                __P4IN = 0x1c
                0x000000000000001d                __P4OUT = 0x1d
                0x000000000000001e                __P4DIR = 0x1e
                0x000000000000001f                __P4SEL = 0x1f
                0x0000000000000030                __P5IN = 0x30
                0x0000000000000031                __P5OUT = 0x31
                0x0000000000000032                __P5DIR = 0x32
                0x0000000000000033                __P5SEL = 0x33
                0x0000000000000034                __P6IN = 0x34
                0x0000000000000035                __P6OUT = 0x35
                0x0000000000000036                __P6DIR = 0x36
                0x0000000000000037                __P6SEL = 0x37
                0x0000000000000070                __U0CTL = 0x70
                0x0000000000000071                __U0TCTL = 0x71
                0x0000000000000072                __U0RCTL = 0x72
                0x0000000000000073                __U0MCTL = 0x73
                0x0000000000000074                __U0BR0 = 0x74
                0x0000000000000075                __U0BR1 = 0x75
                0x0000000000000076                __U0RXBUF = 0x76
                0x0000000000000077                __U0TXBUF = 0x77
                0x0000000000000078                __U1CTL = 0x78
                0x0000000000000079                __U1TCTL = 0x79
                0x000000000000007a                __U1RCTL = 0x7a
                0x000000000000007b                __U1MCTL = 0x7b
                0x000000000000007c                __U1BR0 = 0x7c
                0x000000000000007d                __U1BR1 = 0x7d
                0x000000000000007e                __U1RXBUF = 0x7e
                0x000000000000007f                __U1TXBUF = 0x7f
                0x0000000000000050                __I2CIE = 0x50
                0x0000000000000051                __I2CIFG = 0x51
                0x0000000000000052                __I2CNDAT = 0x52
                0x0000000000000071                __I2CTCTL = 0x71
                0x0000000000000072                __I2CDCTL = 0x72
                0x0000000000000073                __I2CPSC = 0x73
                0x0000000000000074                __I2CSCLH = 0x74
                0x0000000000000075                __I2CSCLL = 0x75
                0x0000000000000076                __I2CDRB = 0x76
                0x0000000000000076                __I2CDRW = 0x76
                0x0000000000000118                __I2COA = 0x118
                0x000000000000011a                __I2CSA = 0x11a
                0x000000000000011c                __I2CIV = 0x11c
                0x000000000000012e                __TAIV = 0x12e
                0x0000000000000160                __TACTL = 0x160
                0x0000000000000162                __TACCTL0 = 0x162
                0x0000000000000164                __TACCTL1 = 0x164
                0x0000000000000166                __TACCTL2 = 0x166
                0x0000000000000170                __TAR = 0x170
                0x0000000000000172                __TACCR0 = 0x172
                0x0000000000000174                __TACCR1 = 0x174
                0x0000000000000176                __TACCR2 = 0x176
                0x000000000000011e                __TBIV = 0x11e
                0x0000000000000180                __TBCTL = 0x180
                0x0000000000000182                __TBCCTL0 = 0x182
                0x0000000000000184                __TBCCTL1 = 0x184
                0x0000000000000186                __TBCCTL2 = 0x186
                0x0000000000000188                __TBCCTL3 = 0x188
                0x000000000000018a                __TBCCTL4 = 0x18a
                0x000000000000018c                __TBCCTL5 = 0x18c
                0x000000000000018e                __TBCCTL6 = 0x18e
                0x0000000000000190                __TBR = 0x190
                0x0000000000000192                __TBCCR0 = 0x192
                0x0000000000000194                __TBCCR1 = 0x194
                0x0000000000000196                __TBCCR2 = 0x196
                0x0000000000000198                __TBCCR3 = 0x198
                0x000000000000019a                __TBCCR4 = 0x19a
                0x000000000000019c                __TBCCR5 = 0x19c
                0x000000000000019e                __TBCCR6 = 0x19e
                0x0000000000000056                __DCOCTL = 0x56
                0x0000000000000057                __BCSCTL1 = 0x57
                0x0000000000000058                __BCSCTL2 = 0x58
                0x0000000000000055                __SVSCTL = 0x55
                0x0000000000000128                __FCTL1 = 0x128
                0x000000000000012a                __FCTL2 = 0x12a
                0x000000000000012c                __FCTL3 = 0x12c
                0x0000000000000059                __CACTL1 = 0x59
                0x000000000000005a                __CACTL2 = 0x5a
                0x000000000000005b                __CAPD = 0x5b
                0x00000000000001a0                __ADC12CTL0 = 0x1a0
                0x00000000000001a2                __ADC12CTL1 = 0x1a2
                0x00000000000001a4                __ADC12IFG = 0x1a4
                0x00000000000001a6                __ADC12IE = 0x1a6
                0x00000000000001a8                __ADC12IV = 0x1a8
                0x0000000000000140                __ADC12MEM0 = 0x140
                0x0000000000000142                __ADC12MEM1 = 0x142
                0x0000000000000144                __ADC12MEM2 = 0x144
                0x0000000000000146                __ADC12MEM3 = 0x146
                0x0000000000000148                __ADC12MEM4 = 0x148
                0x000000000000014a                __ADC12MEM5 = 0x14a
                0x000000000000014c                __ADC12MEM6 = 0x14c
                0x000000000000014e                __ADC12MEM7 = 0x14e
                0x0000000000000150                __ADC12MEM8 = 0x150
                0x0000000000000152                __ADC12MEM9 = 0x152
                0x0000000000000154                __ADC12MEM10 = 0x154
                0x0000000000000156                __ADC12MEM11 = 0x156
                0x0000000000000158                __ADC12MEM12 = 0x158
                0x000000000000015a                __ADC12MEM13 = 0x15a
                0x000000000000015c                __ADC12MEM14 = 0x15c
                0x000000000000015e                __ADC12MEM15 = 0x15e
                0x0000000000000080                __ADC12MCTL0 = 0x80
                0x0000000000000081                __ADC12MCTL1 = 0x81
                0x0000000000000082                __ADC12MCTL2 = 0x82
                0x0000000000000083                __ADC12MCTL3 = 0x83
                0x0000000000000084                __ADC12MCTL4 = 0x84
                0x0000000000000085                __ADC12MCTL5 = 0x85
                0x0000000000000086                __ADC12MCTL6 = 0x86
                0x0000000000000087                __ADC12MCTL7 = 0x87
                0x0000000000000088                __ADC12MCTL8 = 0x88
                0x0000000000000089                __ADC12MCTL9 = 0x89
                0x000000000000008a                __ADC12MCTL10 = 0x8a
                0x000000000000008b                __ADC12MCTL11 = 0x8b
                0x000000000000008c                __ADC12MCTL12 = 0x8c
                0x000000000000008d                __ADC12MCTL13 = 0x8d
                0x000000000000008e                __ADC12MCTL14 = 0x8e
                0x000000000000008f                __ADC12MCTL15 = 0x8f
                0x00000000000001c0                __DAC12_0CTL = 0x1c0
                0x00000000000001c2                __DAC12_1CTL = 0x1c2
                0x00000000000001c8                __DAC12_0DAT = 0x1c8
                0x00000000000001ca                __DAC12_1DAT = 0x1ca
                0x0000000000000122                __DMACTL0 = 0x122
                0x0000000000000124                __DMACTL1 = 0x124
                0x00000000000001e0                __DMA0CTL = 0x1e0
                0x00000000000001e8                __DMA1CTL = 0x1e8
                0x00000000000001f0                __DMA2CTL = 0x1f0
                0x00000000000001e2                __DMA0SA = 0x1e2
                0x00000000000001e4                __DMA0DA = 0x1e4
                0x00000000000001e6                __DMA0SZ = 0x1e6
                0x00000000000001ea                __DMA1SA = 0x1ea
                0x00000000000001ec                __DMA1DA = 0x1ec
                0x00000000000001ee                __DMA1SZ = 0x1ee
                0x00000000000001f2                __DMA2SA = 0x1f2
                0x00000000000001f4                __DMA2DA = 0x1f4
                0x00000000000001f6                __DMA2SZ = 0x1f6

.hash
 *(.hash)

.dynsym
 *(.dynsym)

.dynstr
 *(.dynstr)

.gnu.version
 *(.gnu.version)

.gnu.version_d
 *(.gnu.version_d)

.gnu.version_r
 *(.gnu.version_r)

.rel.init
 *(.rel.init)

.rela.init
 *(.rela.init)

.rel.fini
 *(.rel.fini)

.rela.fini
 *(.rela.fini)

.rel.text
 *(.rel.text .rel.text.* .rel.gnu.linkonce.t.*)

.rela.text
 *(.rela.text .rela.text.* .rela.gnu.linkonce.t.*)

.rel.rodata
 *(.rel.rodata .rel.rodata.* .rel.gnu.linkonce.r.*)

.rela.rodata
 *(.rela.rodata .rela.rodata.* .rela.gnu.linkonce.r.*)

.rel.data
 *(.rel.data .rel.data.* .rel.gnu.linkonce.d.*)

.rela.data
 *(.rela.data .rela.data.* .rela.gnu.linkonce.d.*)

.rel.bss
 *(.rel.bss .rel.bss.* .rel.gnu.linkonce.b.*)

.rela.bss
 *(.rela.bss .rela.bss.* .rela.gnu.linkonce.b.*)

.rel.ctors
 *(.rel.ctors)

.rela.ctors
 *(.rela.ctors)

.rel.dtors
 *(.rel.dtors)

.rela.dtors
 *(.rela.dtors)

.rel.got
 *(.rel.got)

.rela.got
 *(.rela.got)

.rel.plt
 *(.rel.plt)

.rela.plt
 *(.rela.plt)

.text           0x0000000000004000     0x5110
                0x0000000000004000                . = ALIGN (0x2)
 *(.init .init.*)
 *(.init0)
 .init0         0x0000000000004000        0x0 /usr/lib/gcc/msp430/4.6.3/mmpy-16/libcrt0.a(_reset_vector__.o)
                0x0000000000004000                _reset_vector__
 *(.init1)
 .init1         0x0000000000004000        0xc /usr/lib/gcc/msp430/4.6.3/mmpy-16/libcrt0.a(__watchdog_support.o)
                0x0000000000004000                __watchdog_support
 *(.init2)
 .init2         0x000000000000400c        0x4 /usr/lib/gcc/msp430/4.6.3/mmpy-16/libcrt0.a(__init_stack.o)
                0x000000000000400c                __init_stack
 *(.init3)
 .init3         0x0000000000004010        0x0 /usr/lib/gcc/msp430/4.6.3/mmpy-16/libcrt0.a(__low_level_init.o)
                0x0000000000004010                __low_level_init
 *(.init4)
 .init4         0x0000000000004010       0x18 /usr/lib/gcc/msp430/4.6.3/mmpy-16/libcrt0.a(_copy_data.o)
                0x0000000000004010                __do_copy_data
 .init4         0x0000000000004028       0x16 /usr/lib/gcc/msp430/4.6.3/mmpy-16/libcrt0.a(_clear_bss.o)
                0x0000000000004028                __do_clear_bss
 *(.init5)
 *(.init6)
 *(.init7)
 *(.init8)
 *(.init9)
 .init9         0x000000000000403e      0x2da obj_sky/contiki-sky-main.o
                0x000000000000403e                main
 *(.fini9)
 .fini9         0x0000000000004318        0x0 /usr/lib/gcc/msp430/4.6.3/mmpy-16/libcrt0.a(__stop_progExec__.o)
                0x0000000000004318                __stop_progExec__
 *(.fini8)
 *(.fini7)
 *(.fini6)
 *(.fini5)
 *(.fini4)
 *(.fini3)
 *(.fini2)
 *(.fini1)
 *(.fini0)
 .fini0         0x0000000000004318        0x6 /usr/lib/gcc/msp430/4.6.3/mmpy-16/libcrt0.a(_endless_loop__.o)
                0x0000000000004318                _endless_loop__
 *(.fini .fini.*)
                0x000000000000431e                . = ALIGN (0x2)
                0x000000000000431e                __ctors_start = .
 *(.ctors)
                0x000000000000431e                __ctors_end = .
                0x000000000000431e                __dtors_start = .
 *(.dtors)
                0x000000000000431e                __dtors_end = .
                0x000000000000431e                . = ALIGN (0x2)
 *(.text .text.* .gnu.linkonce.t.*)
 .text          0x000000000000431e        0x4 /usr/lib/gcc/msp430/4.6.3/mmpy-16/crt0ivtbl16.o
                0x000000000000431e                __isr_14
                0x000000000000431e                __isr_11
                0x000000000000431e                __isr_2
                0x000000000000431e                __isr_7
                0x000000000000431e                __isr_0
                0x000000000000431e                __isr_8
                0x000000000000431e                __isr_3
                0x000000000000431e                __isr_12
                0x000000000000431e                __isr_13
                0x000000000000431e                __isr_9
 .text.process_thread_led_process
                0x0000000000004322       0x2c hello-world-ctimer.co
 .text.led_cb   0x000000000000434e       0x54 hello-world-ctimer.co
 .text.init_platform
                0x00000000000043a2        0xc contiki-sky.a(contiki-sky-pla)
                0x00000000000043a2                init_platform
 .text.status   0x00000000000043ae       0x16 contiki-sky.a(button-sensor.o)
 .text.configure
                0x00000000000043c4       0x52 contiki-sky.a(button-sensor.o)
 .text.value    0x0000000000004416       0x22 contiki-sky.a(button-sensor.o)
 .text.irq_p2   0x0000000000004438       0x8a contiki-sky.a(button-sensor.o)
                0x0000000000004438                irq_p2
                0x0000000000004438                __isr_1
 .text.owreadb  0x00000000000044c2       0x52 contiki-sky.a(ds2411.o)
 .text.ds2411_init
                0x0000000000004514      0x122 contiki-sky.a(ds2411.o)
                0x0000000000004514                ds2411_init
 .text.wait_ready
                0x0000000000004636       0x50 contiki-sky.a(xmem.o)
 .text.xmem_init
                0x0000000000004686       0x3e contiki-sky.a(xmem.o)
                0x0000000000004686                xmem_init
 .text.xmem_pread
                0x00000000000046c4       0xea contiki-sky.a(xmem.o)
                0x00000000000046c4                xmem_pread
 .text.node_id_restore
                0x00000000000047ae       0x38 contiki-sky.a(node-id.o)
                0x00000000000047ae                node_id_restore
 .text.process_thread_sensors_process
                0x00000000000047e6       0xbe contiki-sky.a(sensors.o)
 .text.sensors_changed
                0x00000000000048a4       0x2a contiki-sky.a(sensors.o)
                0x00000000000048a4                sensors_changed
 .text.get_object
                0x00000000000048ce        0x4 contiki-sky.a(cc2420.o)
 .text.set_object
                0x00000000000048d2        0x4 contiki-sky.a(cc2420.o)
 .text.strobe   0x00000000000048d6       0x20 contiki-sky.a(cc2420.o)
 .text.getreg   0x00000000000048f6       0x54 contiki-sky.a(cc2420.o)
 .text.setreg   0x000000000000494a       0x52 contiki-sky.a(cc2420.o)
 .text.write_ram
                0x000000000000499c       0x80 contiki-sky.a(cc2420.o)
 .text.write_fifo_buf
                0x0000000000004a1c       0x40 contiki-sky.a(cc2420.o)
 .text.get_status
                0x0000000000004a5c       0x24 contiki-sky.a(cc2420.o)
 .text.set_txpower
                0x0000000000004a80       0x26 contiki-sky.a(cc2420.o)
 .text.cc2420_receiving_packet
                0x0000000000004aa6        0xe contiki-sky.a(cc2420.o)
 .text.pending_packet
                0x0000000000004ab4        0x8 contiki-sky.a(cc2420.o)
 .text.on       0x0000000000004abc       0x26 contiki-sky.a(cc2420.o)
 .text.wait_for_transmission
                0x0000000000004ae2       0x22 contiki-sky.a(cc2420.o)
 .text.wait_for_status
                0x0000000000004b04       0x2a contiki-sky.a(cc2420.o)
 .text.getrxdata
                0x0000000000004b2e       0x56 contiki-sky.a(cc2420.o)
 .text.flushrx  0x0000000000004b84       0x1a contiki-sky.a(cc2420.o)
 .text.off      0x0000000000004b9e       0x62 contiki-sky.a(cc2420.o)
 .text.RELEASE_LOCK
                0x0000000000004c00       0x28 contiki-sky.a(cc2420.o)
 .text.set_key  0x0000000000004c28       0x18 contiki-sky.a(cc2420.o)
 .text.set_frame_filtering
                0x0000000000004c40       0x30 contiki-sky.a(cc2420.o)
 .text.set_auto_ack
                0x0000000000004c70       0x30 contiki-sky.a(cc2420.o)
 .text.set_poll_mode
                0x0000000000004ca0       0x36 contiki-sky.a(cc2420.o)
 .text.cc2420_prepare
                0x0000000000004cd6       0x3c contiki-sky.a(cc2420.o)
 .text.cc2420_on
                0x0000000000004d12       0x22 contiki-sky.a(cc2420.o)
                0x0000000000004d12                cc2420_on
 .text.cc2420_off
                0x0000000000004d34       0x30 contiki-sky.a(cc2420.o)
                0x0000000000004d34                cc2420_off
 .text.cc2420_cca
                0x0000000000004d64       0x5e contiki-sky.a(cc2420.o)
 .text.cc2420_read
                0x0000000000004dc2       0xc0 contiki-sky.a(cc2420.o)
 .text.process_thread_cc2420_process
                0x0000000000004e82       0x58 contiki-sky.a(cc2420.o)
 .text.encrypt  0x0000000000004eda       0x8e contiki-sky.a(cc2420.o)
 .text.cc2420_set_channel
                0x0000000000004f68       0x3c contiki-sky.a(cc2420.o)
                0x0000000000004f68                cc2420_set_channel
 .text.cc2420_set_pan_addr
                0x0000000000004fa4       0x4c contiki-sky.a(cc2420.o)
                0x0000000000004fa4                cc2420_set_pan_addr
 .text.cc2420_interrupt
                0x0000000000004ff0       0x18 contiki-sky.a(cc2420.o)
                0x0000000000004ff0                cc2420_interrupt
 .text.cc2420_set_txpower
                0x0000000000005008        0xe contiki-sky.a(cc2420.o)
                0x0000000000005008                cc2420_set_txpower
 .text.cc2420_get_txpower
                0x0000000000005016       0x1e contiki-sky.a(cc2420.o)
                0x0000000000005016                cc2420_get_txpower
 .text.cc2420_transmit
                0x0000000000005034      0x134 contiki-sky.a(cc2420.o)
 .text.cc2420_send
                0x0000000000005168       0x12 contiki-sky.a(cc2420.o)
 .text.cc2420_rssi
                0x000000000000517a       0x4c contiki-sky.a(cc2420.o)
                0x000000000000517a                cc2420_rssi
 .text.get_value
                0x00000000000051c6      0x108 contiki-sky.a(cc2420.o)
 .text.cc2420_set_cca_threshold
                0x00000000000052ce       0x16 contiki-sky.a(cc2420.o)
                0x00000000000052ce                cc2420_set_cca_threshold
 .text.set_value
                0x00000000000052e4       0xba contiki-sky.a(cc2420.o)
 .text.cc2420_init
                0x000000000000539e       0xf0 contiki-sky.a(cc2420.o)
                0x000000000000539e                cc2420_init
 .text.cc2420_port1_interrupt
                0x000000000000548e       0x62 contiki-sky.a(cc2420-arch.o)
                0x000000000000548e                __isr_4
                0x000000000000548e                cc2420_port1_interrupt
 .text.cc2420_arch_init
                0x00000000000054f0       0x1a contiki-sky.a(cc2420-arch.o)
                0x00000000000054f0                cc2420_arch_init
 .text.handle_rxdma_timer
                0x000000000000550a       0x3a contiki-sky.a(uart1.o)
 .text.uart1_active
                0x0000000000005544       0x1a contiki-sky.a(uart1.o)
                0x0000000000005544                uart1_active
 .text.uart1_set_input
                0x000000000000555e       0x20 contiki-sky.a(uart1.o)
                0x000000000000555e                uart1_set_input
 .text.uart1_writeb
                0x000000000000557e       0x1a contiki-sky.a(uart1.o)
                0x000000000000557e                uart1_writeb
 .text.uart1_init
                0x0000000000005598       0xf6 contiki-sky.a(uart1.o)
                0x0000000000005598                uart1_init
 .text.putchar  0x000000000000568e       0x10 contiki-sky.a(uart1-putchar.o)
                0x000000000000568e                putchar
 .text.msp430_init_dco
                0x000000000000569e       0x84 contiki-sky.a(msp430.o)
                0x000000000000569e                msp430_init_dco
 .text.msp430_add_lpm_req
                0x0000000000005722        0xc contiki-sky.a(msp430.o)
                0x0000000000005722                msp430_add_lpm_req
 .text.msp430_cpu_init
                0x000000000000572e       0x2a contiki-sky.a(msp430.o)
                0x000000000000572e                msp430_cpu_init
 .text.splhigh_
                0x0000000000005758        0x8 contiki-sky.a(msp430.o)
                0x0000000000005758                splhigh_
 .text.msp430_sync_dco
                0x0000000000005760       0x68 contiki-sky.a(msp430.o)
                0x0000000000005760                msp430_sync_dco
 .text.timera1  0x00000000000057c8      0x11e contiki-sky.a(clock.o)
                0x00000000000057c8                __isr_5
                0x00000000000057c8                timera1
 .text.clock_time
                0x00000000000058e6       0x1a contiki-sky.a(clock.o)
                0x00000000000058e6                clock_time
 .text.clock_init
                0x0000000000005900       0x28 contiki-sky.a(clock.o)
                0x0000000000005900                clock_init
 .text.clock_delay
                0x0000000000005928        0xc contiki-sky.a(clock.o)
                0x0000000000005928                clock_delay
 .text.show_leds
                0x0000000000005934       0xf6 contiki-sky.a(leds.o)
 .text.leds_init
                0x0000000000005a2a        0xa contiki-sky.a(leds.o)
                0x0000000000005a2a                leds_init
 .text.leds_on  0x0000000000005a34        0xa contiki-sky.a(leds.o)
                0x0000000000005a34                leds_on
 .text.leds_off
                0x0000000000005a3e        0xe contiki-sky.a(leds.o)
                0x0000000000005a3e                leds_off
 .text.leds_toggle
                0x0000000000005a4c        0xa contiki-sky.a(leds.o)
                0x0000000000005a4c                leds_toggle
 .text.leds_arch_init
                0x0000000000005a56        0xe contiki-sky.a(leds-arch.o)
                0x0000000000005a56                leds_arch_init
 .text.leds_arch_set
                0x0000000000005a64       0x3a contiki-sky.a(leds-arch.o)
                0x0000000000005a64                leds_arch_set
 .text.watchdog_interrupt
                0x0000000000005a9e        0x6 contiki-sky.a(watchdog.o)
                0x0000000000005a9e                __isr_10
                0x0000000000005a9e                watchdog_interrupt
 .text.watchdog_start
                0x0000000000005aa4       0x14 contiki-sky.a(watchdog.o)
                0x0000000000005aa4                watchdog_start
 .text.watchdog_periodic
                0x0000000000005ab8       0x12 contiki-sky.a(watchdog.o)
                0x0000000000005ab8                watchdog_periodic
 .text.watchdog_stop
                0x0000000000005aca       0x16 contiki-sky.a(watchdog.o)
                0x0000000000005aca                watchdog_stop
 .text.watchdog_init
                0x0000000000005ae0       0x14 contiki-sky.a(watchdog.o)
                0x0000000000005ae0                watchdog_init
 .text.rtimer_arch_init
                0x0000000000005af4        0xe contiki-sky.a(rtimer-arch.o)
                0x0000000000005af4                rtimer_arch_init
 .text.rtimer_arch_now
                0x0000000000005b02        0xe contiki-sky.a(rtimer-arch.o)
                0x0000000000005b02                rtimer_arch_now
 .text.timera0  0x0000000000005b10       0x70 contiki-sky.a(rtimer-arch.o)
                0x0000000000005b10                __isr_6
                0x0000000000005b10                timera0
 .text.rtimer_arch_schedule
                0x0000000000005b80        0x6 contiki-sky.a(rtimer-arch.o)
                0x0000000000005b80                rtimer_arch_schedule
 .text.autostart_start
                0x0000000000005b86       0x16 contiki-sky.a(autostart.o)
                0x0000000000005b86                autostart_start
 .text.energest_init
                0x0000000000005b9c       0x28 contiki-sky.a(energest.o)
                0x0000000000005b9c                energest_init
 .text.energest_type_time
                0x0000000000005bc4       0x46 contiki-sky.a(energest.o)
                0x0000000000005bc4                energest_type_time
 .text.energest_type_set
                0x0000000000005c0a        0xe contiki-sky.a(energest.o)
                0x0000000000005c0a                energest_type_set
 .text.energest_flush
                0x0000000000005c18       0x48 contiki-sky.a(energest.o)
                0x0000000000005c18                energest_flush
 .text.process_thread_ctimer_process
                0x0000000000005c60       0xa4 contiki-sky.a(ctimer.o)
 .text.ctimer_init
                0x0000000000005d04       0x18 contiki-sky.a(ctimer.o)
                0x0000000000005d04                ctimer_init
 .text.ctimer_set_with_process
                0x0000000000005d1c       0x4e contiki-sky.a(ctimer.o)
                0x0000000000005d1c                ctimer_set_with_process
 .text.ctimer_set
                0x0000000000005d6a       0x10 contiki-sky.a(ctimer.o)
                0x0000000000005d6a                ctimer_set
 .text.ctimer_reset
                0x0000000000005d7a       0x30 contiki-sky.a(ctimer.o)
                0x0000000000005d7a                ctimer_reset
 .text.ctimer_stop
                0x0000000000005daa       0x28 contiki-sky.a(ctimer.o)
                0x0000000000005daa                ctimer_stop
 .text.update_time
                0x0000000000005dd2       0x78 contiki-sky.a(etimer.o)
 .text.etimer_request_poll
                0x0000000000005e4a        0xa contiki-sky.a(etimer.o)
                0x0000000000005e4a                etimer_request_poll
 .text.process_thread_etimer_process
                0x0000000000005e54       0xc8 contiki-sky.a(etimer.o)
 .text.add_timer
                0x0000000000005f1c       0x40 contiki-sky.a(etimer.o)
 .text.etimer_set
                0x0000000000005f5c       0x12 contiki-sky.a(etimer.o)
                0x0000000000005f5c                etimer_set
 .text.etimer_reset
                0x0000000000005f6e       0x12 contiki-sky.a(etimer.o)
                0x0000000000005f6e                etimer_reset
 .text.etimer_pending
                0x0000000000005f80        0xc contiki-sky.a(etimer.o)
                0x0000000000005f80                etimer_pending
 .text.etimer_next_expiration_time
                0x0000000000005f8c       0x16 contiki-sky.a(etimer.o)
                0x0000000000005f8c                etimer_next_expiration_time
 .text.etimer_stop
                0x0000000000005fa2       0x3c contiki-sky.a(etimer.o)
                0x0000000000005fa2                etimer_stop
 .text.call_process
                0x0000000000005fde       0x4a contiki-sky.a(process.o)
 .text.exit_process
                0x0000000000006028       0x96 contiki-sky.a(process.o)
 .text.do_poll  0x00000000000060be       0x30 contiki-sky.a(process.o)
 .text.process_alloc_event
                0x00000000000060ee        0xe contiki-sky.a(process.o)
                0x00000000000060ee                process_alloc_event
 .text.process_init
                0x00000000000060fc       0x1c contiki-sky.a(process.o)
                0x00000000000060fc                process_init
 .text.process_run
                0x0000000000006118       0x92 contiki-sky.a(process.o)
                0x0000000000006118                process_run
 .text.process_nevents
                0x00000000000061aa        0xe contiki-sky.a(process.o)
                0x00000000000061aa                process_nevents
 .text.process_post
                0x00000000000061b8       0x4e contiki-sky.a(process.o)
                0x00000000000061b8                process_post
 .text.process_post_synch
                0x0000000000006206       0x12 contiki-sky.a(process.o)
                0x0000000000006206                process_post_synch
 .text.process_start
                0x0000000000006218       0x32 contiki-sky.a(process.o)
                0x0000000000006218                process_start
 .text.process_poll
                0x000000000000624a       0x18 contiki-sky.a(process.o)
                0x000000000000624a                process_poll
 .text.rtimer_init
                0x0000000000006262        0x6 contiki-sky.a(rtimer.o)
                0x0000000000006262                rtimer_init
 .text.rtimer_set
                0x0000000000006268       0x24 contiki-sky.a(rtimer.o)
                0x0000000000006268                rtimer_set
 .text.rtimer_run_next
                0x000000000000628c       0x26 contiki-sky.a(rtimer.o)
                0x000000000000628c                rtimer_run_next
 .text.timer_set
                0x00000000000062b2       0x1c contiki-sky.a(timer.o)
                0x00000000000062b2                timer_set
 .text.timer_reset
                0x00000000000062ce        0xe contiki-sky.a(timer.o)
                0x00000000000062ce                timer_reset
 .text.timer_expired
                0x00000000000062dc       0x2a contiki-sky.a(timer.o)
                0x00000000000062dc                timer_expired
 .text.process_thread_serial_line_process
                0x0000000000006306       0x9c contiki-sky.a(serial-line.o)
 .text.serial_line_input_byte
                0x00000000000063a2       0x4a contiki-sky.a(serial-line.o)
                0x00000000000063a2                serial_line_input_byte
 .text.serial_line_init
                0x00000000000063ec       0x1c contiki-sky.a(serial-line.o)
                0x00000000000063ec                serial_line_init
 .text.list_init
                0x0000000000006408        0x6 contiki-sky.a(list.o)
                0x0000000000006408                list_init
 .text.list_head
                0x000000000000640e        0x4 contiki-sky.a(list.o)
                0x000000000000640e                list_head
 .text.list_tail
                0x0000000000006412       0x12 contiki-sky.a(list.o)
                0x0000000000006412                list_tail
 .text.list_remove
                0x0000000000006424       0x34 contiki-sky.a(list.o)
                0x0000000000006424                list_remove
 .text.list_push
                0x0000000000006458       0x1a contiki-sky.a(list.o)
                0x0000000000006458                list_push
 .text.list_add
                0x0000000000006472       0x2a contiki-sky.a(list.o)
                0x0000000000006472                list_add
 .text.list_length
                0x000000000000649c       0x10 contiki-sky.a(list.o)
                0x000000000000649c                list_length
 .text.list_item_next
                0x00000000000064ac        0xc contiki-sky.a(list.o)
                0x00000000000064ac                list_item_next
 .text.random_init
                0x00000000000064b8        0x6 contiki-sky.a(random.o)
                0x00000000000064b8                random_init
 .text.random_rand
                0x00000000000064be        0x6 contiki-sky.a(random.o)
                0x00000000000064be                random_rand
 .text.ringbuf_init
                0x00000000000064c4       0x14 contiki-sky.a(ringbuf.o)
                0x00000000000064c4                ringbuf_init
 .text.ringbuf_put
                0x00000000000064d8       0x38 contiki-sky.a(ringbuf.o)
                0x00000000000064d8                ringbuf_put
 .text.ringbuf_get
                0x0000000000006510       0x34 contiki-sky.a(ringbuf.o)
                0x0000000000006510                ringbuf_get
 .text.input    0x0000000000006544       0x3a contiki-sky.a(rime.o)
 .text.init     0x000000000000657e       0x2e contiki-sky.a(rime.o)
 .text.packet_sent
                0x00000000000065ac       0x44 contiki-sky.a(rime.o)
 .text.rime_output
                0x00000000000065f0       0x24 contiki-sky.a(rime.o)
                0x00000000000065f0                rime_output
 .text.adv_packet_sent
                0x0000000000006614        0x2 contiki-sky.a(broadcast-annou)
 .text.adv_packet_received
                0x0000000000006616       0x66 contiki-sky.a(broadcast-annou)
 .text.set_timers
                0x000000000000667c       0x4a contiki-sky.a(broadcast-annou)
 .text.send_timer
                0x00000000000066c6       0x36 contiki-sky.a(broadcast-annou)
 .text.new_announcement
                0x00000000000066fc       0x18 contiki-sky.a(broadcast-annou)
 .text.send_adv
                0x0000000000006714       0x66 contiki-sky.a(broadcast-annou)
 .text.broadcast_announcement_init
                0x000000000000677a       0x48 contiki-sky.a(broadcast-annou)
                0x000000000000677a                broadcast_announcement_init
 .text.abc_open
                0x00000000000067c2       0x26 contiki-sky.a(abc.o)
                0x00000000000067c2                abc_open
 .text.abc_send
                0x00000000000067e8        0x6 contiki-sky.a(abc.o)
                0x00000000000067e8                abc_send
 .text.abc_input
                0x00000000000067ee        0xe contiki-sky.a(abc.o)
                0x00000000000067ee                abc_input
 .text.abc_sent
                0x00000000000067fc       0x10 contiki-sky.a(abc.o)
                0x00000000000067fc                abc_sent
 .text.chameleon_init
                0x000000000000680c        0x6 contiki-sky.a(chameleon.o)
                0x000000000000680c                chameleon_init
 .text.chameleon_parse
                0x0000000000006812       0x10 contiki-sky.a(chameleon.o)
                0x0000000000006812                chameleon_parse
 .text.chameleon_create
                0x0000000000006822       0x1c contiki-sky.a(chameleon.o)
                0x0000000000006822                chameleon_create
 .text.chameleon_hdrsize
                0x000000000000683e        0x6 contiki-sky.a(chameleon.o)
                0x000000000000683e                chameleon_hdrsize
 .text.channel_init
                0x0000000000006844        0xa contiki-sky.a(channel.o)
                0x0000000000006844                channel_init
 .text.channel_open
                0x000000000000684e       0x10 contiki-sky.a(channel.o)
                0x000000000000684e                channel_open
 .text.channel_lookup
                0x000000000000685e       0x20 contiki-sky.a(channel.o)
                0x000000000000685e                channel_lookup
 .text.channel_set_attributes
                0x000000000000687e       0x24 contiki-sky.a(channel.o)
                0x000000000000687e                channel_set_attributes
 .text.sent_by_abc
                0x00000000000068a2       0x10 contiki-sky.a(broadcast.o)
 .text.recv_from_abc
                0x00000000000068b2       0x26 contiki-sky.a(broadcast.o)
 .text.broadcast_open
                0x00000000000068d8       0x2a contiki-sky.a(broadcast.o)
                0x00000000000068d8                broadcast_open
 .text.broadcast_send
                0x0000000000006902       0x1a contiki-sky.a(broadcast.o)
                0x0000000000006902                broadcast_send
 .text.announcement_init
                0x000000000000691c        0xa contiki-sky.a(announcement.o)
                0x000000000000691c                announcement_init
 .text.announcement_register_observer_callback
                0x0000000000006926        0x6 contiki-sky.a(announcement.o)
                0x0000000000006926                announcement_register_observer_callback
 .text.announcement_list
                0x000000000000692c        0xa contiki-sky.a(announcement.o)
                0x000000000000692c                announcement_list
 .text.announcement_heard
                0x0000000000006936       0x42 contiki-sky.a(announcement.o)
                0x0000000000006936                announcement_heard
 .text.input_packet
                0x0000000000006978        0x6 contiki-sky.a(csma.o)
 .text.on       0x000000000000697e        0x6 contiki-sky.a(csma.o)
 .text.off      0x0000000000006984        0x6 contiki-sky.a(csma.o)
 .text.channel_check_interval
                0x000000000000698a       0x10 contiki-sky.a(csma.o)
 .text.transmit_packet_list
                0x000000000000699a       0x24 contiki-sky.a(csma.o)
 .text.schedule_transmission
                0x00000000000069be       0x94 contiki-sky.a(csma.o)
 .text.send_packet
                0x0000000000006a52      0x170 contiki-sky.a(csma.o)
 .text.init     0x0000000000006bc2       0x1a contiki-sky.a(csma.o)
 .text.tx_done  0x0000000000006bdc       0x98 contiki-sky.a(csma.o)
 .text.packet_sent
                0x0000000000006c74       0xd2 contiki-sky.a(csma.o)
 .text.mac_call_sent_callback
                0x0000000000006d46       0x14 contiki-sky.a(mac.o)
                0x0000000000006d46                mac_call_sent_callback
 .text.queuebuf_init
                0x0000000000006d5a       0x12 contiki-sky.a(queuebuf.o)
                0x0000000000006d5a                queuebuf_init
 .text.queuebuf_new_from_packetbuf
                0x0000000000006d6c       0x52 contiki-sky.a(queuebuf.o)
                0x0000000000006d6c                queuebuf_new_from_packetbuf
 .text.queuebuf_update_attr_from_packetbuf
                0x0000000000006dbe       0x12 contiki-sky.a(queuebuf.o)
                0x0000000000006dbe                queuebuf_update_attr_from_packetbuf
 .text.queuebuf_update_from_packetbuf
                0x0000000000006dd0       0x22 contiki-sky.a(queuebuf.o)
                0x0000000000006dd0                queuebuf_update_from_packetbuf
 .text.queuebuf_free
                0x0000000000006df2       0x2a contiki-sky.a(queuebuf.o)
                0x0000000000006df2                queuebuf_free
 .text.queuebuf_to_packetbuf
                0x0000000000006e1c       0x32 contiki-sky.a(queuebuf.o)
                0x0000000000006e1c                queuebuf_to_packetbuf
 .text.queuebuf_attr
                0x0000000000006e4e        0xe contiki-sky.a(queuebuf.o)
                0x0000000000006e4e                queuebuf_attr
 .text.packetbuf_hdrreduce
                0x0000000000006e5c       0x1a contiki-sky.a(packetbuf.o)
                0x0000000000006e5c                packetbuf_hdrreduce
 .text.packetbuf_set_datalen
                0x0000000000006e76        0x6 contiki-sky.a(packetbuf.o)
                0x0000000000006e76                packetbuf_set_datalen
 .text.packetbuf_hdrptr
                0x0000000000006e7c        0x6 contiki-sky.a(packetbuf.o)
                0x0000000000006e7c                packetbuf_hdrptr
 .text.packetbuf_datalen
                0x0000000000006e82        0x6 contiki-sky.a(packetbuf.o)
                0x0000000000006e82                packetbuf_datalen
 .text.packetbuf_hdrlen
                0x0000000000006e88        0xa contiki-sky.a(packetbuf.o)
                0x0000000000006e88                packetbuf_hdrlen
 .text.packetbuf_dataptr
                0x0000000000006e92        0xc contiki-sky.a(packetbuf.o)
                0x0000000000006e92                packetbuf_dataptr
 .text.packetbuf_copyto
                0x0000000000006e9e       0x46 contiki-sky.a(packetbuf.o)
                0x0000000000006e9e                packetbuf_copyto
 .text.packetbuf_compact
                0x0000000000006ee4       0x36 contiki-sky.a(packetbuf.o)
                0x0000000000006ee4                packetbuf_compact
 .text.packetbuf_totlen
                0x0000000000006f1a        0xc contiki-sky.a(packetbuf.o)
                0x0000000000006f1a                packetbuf_totlen
 .text.packetbuf_hdralloc
                0x0000000000006f26       0x3a contiki-sky.a(packetbuf.o)
                0x0000000000006f26                packetbuf_hdralloc
 .text.packetbuf_attr_clear
                0x0000000000006f60       0x2c contiki-sky.a(packetbuf.o)
                0x0000000000006f60                packetbuf_attr_clear
 .text.packetbuf_clear
                0x0000000000006f8c       0x12 contiki-sky.a(packetbuf.o)
                0x0000000000006f8c                packetbuf_clear
 .text.packetbuf_copyfrom
                0x0000000000006f9e       0x2e contiki-sky.a(packetbuf.o)
                0x0000000000006f9e                packetbuf_copyfrom
 .text.packetbuf_attr_copyto
                0x0000000000006fcc       0x20 contiki-sky.a(packetbuf.o)
                0x0000000000006fcc                packetbuf_attr_copyto
 .text.packetbuf_attr_copyfrom
                0x0000000000006fec       0x22 contiki-sky.a(packetbuf.o)
                0x0000000000006fec                packetbuf_attr_copyfrom
 .text.packetbuf_holds_broadcast
                0x000000000000700e        0xe contiki-sky.a(packetbuf.o)
                0x000000000000700e                packetbuf_holds_broadcast
 .text.linkaddr_copy
                0x000000000000701c        0xc contiki-sky.a(linkaddr.o)
                0x000000000000701c                linkaddr_copy
 .text.linkaddr_cmp
                0x0000000000007028       0x12 contiki-sky.a(linkaddr.o)
                0x0000000000007028                linkaddr_cmp
 .text.linkaddr_set_node_addr
                0x000000000000703a        0xc contiki-sky.a(linkaddr.o)
                0x000000000000703a                linkaddr_set_node_addr
 .text.duty_cycle
                0x0000000000007046        0x6 contiki-sky.a(contikimac.o)
 .text.init     0x000000000000704c       0x2a contiki-sky.a(contikimac.o)
 .text.on       0x0000000000007076       0x1a contiki-sky.a(contikimac.o)
 .text.off      0x0000000000007090       0x22 contiki-sky.a(contikimac.o)
 .text.recv_burst_off
                0x00000000000070b2        0xa contiki-sky.a(contikimac.o)
 .text.turn_off
                0x00000000000070bc       0x20 contiki-sky.a(contikimac.o)
 .text.turn_on  0x00000000000070dc       0x30 contiki-sky.a(contikimac.o)
 .text.schedule_powercycle_fixed.part.4
                0x000000000000710c       0x32 contiki-sky.a(contikimac.o)
 .text.powercycle_turn_radio_off
                0x000000000000713e       0x30 contiki-sky.a(contikimac.o)
 .text.powercycle_wrapper
                0x000000000000716e      0x1c2 contiki-sky.a(contikimac.o)
 .text.input_packet
                0x0000000000007330       0xb2 contiki-sky.a(contikimac.o)
 .text.send_packet.isra.8
                0x00000000000073e2      0x1ec contiki-sky.a(contikimac.o)
 .text.qsend_list
                0x00000000000075ce       0xd2 contiki-sky.a(contikimac.o)
 .text.qsend_packet
                0x00000000000076a0       0x28 contiki-sky.a(contikimac.o)
 .text.hdr_length
                0x00000000000076c8        0x8 contiki-sky.a(contikimac-fram)
 .text.parse    0x00000000000076d0       0x3a contiki-sky.a(contikimac-fram)
 .text.create   0x000000000000770a       0x74 contiki-sky.a(contikimac-fram)
 .text.init     0x000000000000777e        0x2 contiki-sky.a(nullsec.o)
 .text.send     0x0000000000007780        0xa contiki-sky.a(nullsec.o)
 .text.input    0x000000000000778a        0x6 contiki-sky.a(nullsec.o)
 .text.spi_init
                0x0000000000007790       0x32 contiki-sky.a(spi.o)
                0x0000000000007790                spi_init
 .text.compower_accumulate
                0x00000000000077c2       0x72 contiki-sky.a(compower.o)
                0x00000000000077c2                compower_accumulate
 .text.compower_clear
                0x0000000000007834       0x12 contiki-sky.a(compower.o)
                0x0000000000007834                compower_clear
 .text.compower_attrconv
                0x0000000000007846       0x10 contiki-sky.a(compower.o)
                0x0000000000007846                compower_attrconv
 .text.memb_init
                0x0000000000007856       0x36 contiki-sky.a(memb.o)
                0x0000000000007856                memb_init
 .text.memb_alloc
                0x000000000000788c       0x3e contiki-sky.a(memb.o)
                0x000000000000788c                memb_alloc
 .text.memb_free
                0x00000000000078ca       0x3a contiki-sky.a(memb.o)
                0x00000000000078ca                memb_free
 .text.memb_inmemb
                0x0000000000007904       0x2e contiki-sky.a(memb.o)
                0x0000000000007904                memb_inmemb
 .text.get_bits_in_byte
                0x0000000000007932       0x3a contiki-sky.a(chameleon-bitop)
 .text.header_size
                0x000000000000796c       0x16 contiki-sky.a(chameleon-bitop)
 .text.get_bits
                0x0000000000007982       0xa4 contiki-sky.a(chameleon-bitop)
                0x0000000000007982                get_bits
 .text.unpack_header
                0x0000000000007a26       0xdc contiki-sky.a(chameleon-bitop)
 .text.set_bits
                0x0000000000007b02      0x116 contiki-sky.a(chameleon-bitop)
                0x0000000000007b02                set_bits
 .text.pack_header
                0x0000000000007c18       0xc4 contiki-sky.a(chameleon-bitop)
 .text.mac_sequence_is_duplicate
                0x0000000000007cdc       0x66 contiki-sky.a(mac-sequence.o)
                0x0000000000007cdc                mac_sequence_is_duplicate
 .text.mac_sequence_register_seqno
                0x0000000000007d42       0x74 contiki-sky.a(mac-sequence.o)
                0x0000000000007d42                mac_sequence_register_seqno
 .text.parse    0x0000000000007db6       0xb0 contiki-sky.a(framer-802154.o)
 .text.create_frame.isra.0
                0x0000000000007e66      0x114 contiki-sky.a(framer-802154.o)
 .text.create   0x0000000000007f7a        0x8 contiki-sky.a(framer-802154.o)
 .text.hdr_length
                0x0000000000007f82        0x8 contiki-sky.a(framer-802154.o)
 .text.frame802154_get_pan_id
                0x0000000000007f8a        0x6 contiki-sky.a(frame802154.o)
                0x0000000000007f8a                frame802154_get_pan_id
 .text.frame802154_has_panid
                0x0000000000007f90       0xdc contiki-sky.a(frame802154.o)
                0x0000000000007f90                frame802154_has_panid
 .text.field_len
                0x000000000000806c       0xb2 contiki-sky.a(frame802154.o)
 .text.frame802154_is_broadcast_addr
                0x000000000000811e       0x24 contiki-sky.a(frame802154.o)
                0x000000000000811e                frame802154_is_broadcast_addr
 .text.frame802154_hdrlen
                0x0000000000008142       0x32 contiki-sky.a(frame802154.o)
                0x0000000000008142                frame802154_hdrlen
 .text.frame802154_create_fcf
                0x0000000000008174       0x96 contiki-sky.a(frame802154.o)
                0x0000000000008174                frame802154_create_fcf
 .text.frame802154_create
                0x000000000000820a       0xe4 contiki-sky.a(frame802154.o)
                0x000000000000820a                frame802154_create
 .text.frame802154_parse_fcf
                0x00000000000082ee       0xbe contiki-sky.a(frame802154.o)
                0x00000000000082ee                frame802154_parse_fcf
 .text.frame802154_parse
                0x00000000000083ac      0x18c contiki-sky.a(frame802154.o)
                0x00000000000083ac                frame802154_parse
 .text.libgcc   0x0000000000008538       0x2c /usr/lib/gcc/msp430/4.6.3/mmpy-16/libgcc.a(_mulsi3.o)
                0x0000000000008538                __mulsi3
 .text.libgcc   0x0000000000008564       0x40 /usr/lib/gcc/msp430/4.6.3/mmpy-16/libgcc.a(_udivmod32.o)
                0x0000000000008564                __udivsi3
                0x0000000000008564                __ext_udivmod32
                0x000000000000859a                __umodsi3
 .text          0x00000000000085a4       0x20 /usr/lib/gcc/msp430/4.6.3/../../../../msp430/lib/mmpy-16/libc.a(memcmp.o)
                0x00000000000085a4                memcmp
 .text          0x00000000000085c4       0xfa /usr/lib/gcc/msp430/4.6.3/../../../../msp430/lib/mmpy-16/libc.a(memcpy.o)
                0x00000000000085c4                memcpy
 .text          0x00000000000086be       0x6a /usr/lib/gcc/msp430/4.6.3/../../../../msp430/lib/mmpy-16/libc.a(memset.o)
                0x00000000000086be                memset
 .text          0x0000000000008728       0x1e /usr/lib/gcc/msp430/4.6.3/../../../../msp430/lib/mmpy-16/libc.a(printf.o)
                0x0000000000008728                printf
                0x0000000000008738                vprintf
 .text          0x0000000000008746      0x836 /usr/lib/gcc/msp430/4.6.3/../../../../msp430/lib/mmpy-16/libc.a(vuprintf.o)
                0x00000000000088de                vuprintf
 .text          0x0000000000008f7c       0x2c /usr/lib/gcc/msp430/4.6.3/../../../../msp430/lib/mmpy-16/libc.a(puts.o)
                0x0000000000008f7c                puts
 .text          0x0000000000008fa8       0x54 /usr/lib/gcc/msp430/4.6.3/../../../../msp430/lib/mmpy-16/libc.a(rand.o)
                0x0000000000008fa8                rand_r
                0x0000000000008fcc                rand
                0x0000000000008ff2                srand
 .text.libgcc   0x0000000000008ffc       0x22 /usr/lib/gcc/msp430/4.6.3/mmpy-16/libgcc.a(_udivmod16.o)
                0x0000000000008ffc                __udivhi3
                0x0000000000008ffc                __ext_udivmod16
                0x0000000000009016                __umodhi3
 .text.libgcc   0x000000000000901e       0xf0 /usr/lib/gcc/msp430/4.6.3/mmpy-16/libgcc.a(_udivmod64.o)
                0x000000000000901e                __xabi_udivmod64
                0x000000000000907c                __udivdi3
                0x00000000000090a2                __umoddi3
                0x00000000000090d0                __udivmoddi4
 .text.crt0     0x000000000000910e        0x2 /usr/lib/gcc/msp430/4.6.3/mmpy-16/libcrt0.a(_unexpected_.o)
                0x000000000000910e                _unexpected_
                0x0000000000009110                . = ALIGN (0x2)

.rodata         0x0000000000009110      0x24e
                0x0000000000009110                . = ALIGN (0x2)
 *(.rodata .rodata.* .gnu.linkonce.r.*)
 .rodata        0x0000000000009110       0x32 hello-world-ctimer.co
                0x0000000000009132                autostart_processes
 .rodata        0x0000000000009142       0xe7 obj_sky/contiki-sky-main.o
 *fill*         0x0000000000009229        0x1 00
 .rodata        0x000000000000922a       0x10 contiki-sky.a(button-sensor.o)
                0x0000000000009232                button_sensor
 .rodata        0x000000000000923a        0x8 contiki-sky.a(sensors.o)
 .rodata        0x0000000000009242       0x70 contiki-sky.a(cc2420.o)
                0x0000000000009274                cc2420_aes_128_driver
                0x0000000000009278                cc2420_driver
 .rodata        0x00000000000092b2        0xf contiki-sky.a(ctimer.o)
 .rodata        0x00000000000092c1        0xc contiki-sky.a(etimer.o)
 .rodata        0x00000000000092cd        0xe contiki-sky.a(serial-line.o)
 *fill*         0x00000000000092db        0x1 00
 .rodata        0x00000000000092dc        0xc contiki-sky.a(rime.o)
                0x00000000000092e2                rime_driver
 .rodata        0x00000000000092e8        0x4 contiki-sky.a(broadcast-annou)
 .rodata        0x00000000000092ec        0x2 contiki-sky.a(abc.o)
 .rodata        0x00000000000092ee        0x8 contiki-sky.a(broadcast.o)
 .rodata        0x00000000000092f6       0x14 contiki-sky.a(csma.o)
                0x00000000000092fc                csma_driver
 .rodata        0x000000000000930a        0x2 contiki-sky.a(linkaddr.o)
                0x000000000000930a                linkaddr_null
 .rodata        0x000000000000930c       0x1c contiki-sky.a(contikimac.o)
                0x0000000000009318                contikimac_driver
 .rodata        0x0000000000009328        0x6 contiki-sky.a(contikimac-fram)
                0x0000000000009328                contikimac_framer
 .rodata        0x000000000000932e       0x10 contiki-sky.a(nullsec.o)
                0x0000000000009336                nullsec_driver
 .rodata        0x000000000000933e       0x10 contiki-sky.a(chameleon-bitop)
                0x000000000000933e                chameleon_bitopt
 .rodata        0x000000000000934e        0x6 contiki-sky.a(framer-802154.o)
                0x000000000000934e                framer_802154
 .rodata        0x0000000000009354        0x2 contiki-sky.a(frame802154.o)
 .rodata        0x0000000000009356        0x7 /usr/lib/gcc/msp430/4.6.3/../../../../msp430/lib/mmpy-16/libc.a(vuprintf.o)
                0x000000000000935e                . = ALIGN (0x2)
 *fill*         0x000000000000935d        0x1 00
                0x000000000000935e                _etext = .

.data           0x0000000000001100       0x72 load address 0x000000000000935e
                0x0000000000001100                . = ALIGN (0x2)
                0x0000000000001100                PROVIDE (__data_start, .)
 *(.data .data.* .gnu.linkonce.d.*)
 .data          0x0000000000001100        0xa hello-world-ctimer.co
                0x0000000000001100                led_process
 .data          0x000000000000110a        0x4 contiki-sky.a(contiki-sky-pla)
                0x000000000000110a                sensors
 .data          0x000000000000110e        0xa contiki-sky.a(sensors.o)
                0x000000000000110e                sensors_process
 .data          0x0000000000001118        0xc contiki-sky.a(cc2420.o)
                0x0000000000001118                cc2420_process
 .data          0x0000000000001124        0x2 contiki-sky.a(msp430.o)
 .data          0x0000000000001126        0xa contiki-sky.a(ctimer.o)
                0x0000000000001126                ctimer_process
 .data          0x0000000000001130        0xa contiki-sky.a(etimer.o)
                0x0000000000001130                etimer_process
 .data          0x000000000000113a        0xa contiki-sky.a(serial-line.o)
                0x000000000000113a                serial_line_process
 .data          0x0000000000001144       0x18 contiki-sky.a(csma.o)
 .data          0x000000000000115c       0x10 contiki-sky.a(queuebuf.o)
 .data          0x000000000000116c        0x2 contiki-sky.a(frame802154.o)
 .data          0x000000000000116e        0x4 /usr/lib/gcc/msp430/4.6.3/../../../../msp430/lib/mmpy-16/libc.a(rand.o)
                0x0000000000001172                . = ALIGN (0x2)
                0x0000000000001172                _edata = .
                0x000000000000935e                PROVIDE (__data_load_start, LOADADDR (.data))
                0x0000000000000072                PROVIDE (__data_size, SIZEOF (.data))

.bss            0x0000000000001172     0x11c4 load address 0x00000000000093d0
                0x0000000000001172                PROVIDE (__bss_start, .)
 *(.bss .bss.*)
 .bss           0x0000000000001172       0x16 hello-world-ctimer.co
 .bss           0x0000000000001188        0xc obj_sky/contiki-sky-main.o
 .bss           0x0000000000001194        0x8 contiki-sky.a(button-sensor.o)
 .bss           0x000000000000119c        0x2 contiki-sky.a(node-id.o)
                0x000000000000119c                node_id
 .bss           0x000000000000119e        0x6 contiki-sky.a(sensors.o)
 .bss           0x00000000000011a4        0xa contiki-sky.a(cc2420.o)
 .bss           0x00000000000011ae       0x9a contiki-sky.a(uart1.o)
 .bss           0x0000000000001248        0xa contiki-sky.a(clock.o)
 .bss           0x0000000000001252        0x1 contiki-sky.a(leds.o)
 *fill*         0x0000000000001253        0x1 00
 .bss           0x0000000000001254        0x2 contiki-sky.a(watchdog.o)
 .bss           0x0000000000001256        0x4 contiki-sky.a(ctimer.o)
 .bss           0x000000000000125a        0x6 contiki-sky.a(etimer.o)
 .bss           0x0000000000001260       0x38 contiki-sky.a(process.o)
                0x0000000000001260                process_current
                0x0000000000001262                process_list
 .bss           0x0000000000001298        0x2 contiki-sky.a(rtimer.o)
 .bss           0x000000000000129a      0x10a contiki-sky.a(serial-line.o)
 .bss           0x00000000000013a4        0x2 contiki-sky.a(rime.o)
 .bss           0x00000000000013a6       0x46 contiki-sky.a(broadcast-annou)
 .bss           0x00000000000013ec        0x2 contiki-sky.a(channel.o)
 .bss           0x00000000000013ee        0x6 contiki-sky.a(announcement.o)
 .bss           0x00000000000013f4      0x124 contiki-sky.a(csma.o)
 .bss           0x0000000000001518      0xc20 contiki-sky.a(queuebuf.o)
 .bss           0x0000000000002138       0x86 contiki-sky.a(packetbuf.o)
 .bss           0x00000000000021be       0x32 contiki-sky.a(contikimac.o)
 .bss           0x00000000000021f0        0x8 contiki-sky.a(compower.o)
 .bss           0x00000000000021f8       0x80 contiki-sky.a(mac-sequence.o)
 .bss           0x0000000000002278        0x2 contiki-sky.a(framer-802154.o)
 *(COMMON)
 COMMON         0x000000000000227a        0x2 contiki-sky.a(contiki-sky-pla)
                0x000000000000227a                sensors_flags
 COMMON         0x000000000000227c        0x8 contiki-sky.a(ds2411.o)
                0x000000000000227c                ds2411_id
 COMMON         0x0000000000002284        0x1 contiki-sky.a(sensors.o)
                0x0000000000002284                sensors_event
 *fill*         0x0000000000002285        0x1 00
 COMMON         0x0000000000002286       0x10 contiki-sky.a(cc2420.o)
                0x0000000000002286                cc2420_last_rssi
                0x0000000000002288                cc2420_sfd_start_time
                0x000000000000228a                cc2420_time_of_departure
                0x000000000000228c                cc2420_time_of_arrival
                0x000000000000228e                cc2420_last_correlation
                0x0000000000002290                cc2420_authority_level_of_sender
                0x0000000000002292                cc2420_sfd_counter
                0x0000000000002294                cc2420_sfd_end_time
 COMMON         0x0000000000002296        0x2 contiki-sky.a(msp430.o)
                0x0000000000002296                msp430_dco_required
 COMMON         0x0000000000002298       0x56 contiki-sky.a(energest.o)
                0x0000000000002298                energest_total_time
                0x00000000000022c8                energest_total_count
                0x00000000000022ca                energest_current_mode
                0x00000000000022d6                energest_current_time
 COMMON         0x00000000000022ee        0x1 contiki-sky.a(process.o)
                0x00000000000022ee                process_maxevents
 COMMON         0x00000000000022ef        0x1 contiki-sky.a(serial-line.o)
                0x00000000000022ef                serial_line_event_message
 COMMON         0x00000000000022f0       0x3c contiki-sky.a(packetbuf.o)
                0x00000000000022f0                packetbuf_addrs
                0x00000000000022f8                packetbuf_attrs
 COMMON         0x000000000000232c        0x2 contiki-sky.a(linkaddr.o)
                0x000000000000232c                linkaddr_node_addr
 COMMON         0x000000000000232e        0x8 contiki-sky.a(compower.o)
                0x000000000000232e                compower_idle_activity
                0x0000000000002336                . = ALIGN (0x2)
                0x0000000000002336                PROVIDE (__bss_end, .)
                0x00000000000011c4                PROVIDE (__bss_size, SIZEOF (.bss))

.noinit         0x0000000000002336        0x2 load address 0x00000000000093d0
                0x0000000000002336                PROVIDE (__noinit_start, .)
 *(.noinit .noinit.*)
 .noinit.crt0   0x0000000000002336        0x2 /usr/lib/gcc/msp430/4.6.3/mmpy-16/libcrt0.a(__watchdog_support.o)
                0x0000000000002336                __wdt_clear_value
                0x0000000000002338                . = ALIGN (0x2)
                0x0000000000002338                PROVIDE (__noinit_end, .)
                0x0000000000002338                . = ALIGN (0x2)
                0x0000000000002338                _end = .

.infomem        0x0000000000001000        0x0
 *(.infomem)
                0x0000000000001000                . = ALIGN (0x2)
 *(.infomem.*)

.infomemnobits  0x0000000000001000        0x0
 *(.infomemnobits)
                0x0000000000001000                . = ALIGN (0x2)
 *(.infomemnobits.*)

.infoa
 *(.infoa .infoa.*)

.infob
 *(.infob .infob.*)

.infoc
 *(.infoc .infoc.*)

.infod
 *(.infod .infod.*)

.vectors        0x000000000000ffe0       0x20
                0x000000000000ffe0                PROVIDE (__vectors_start, .)
 *(.vectors*)
 .vectors       0x000000000000ffe0       0x20 /usr/lib/gcc/msp430/4.6.3/mmpy-16/crt0ivtbl16.o
                0x000000000000ffe0                __ivtbl_16
                0x0000000000010000                _vectors_end = .

.fartext        0x0000000000000000        0x0
                0x0000000000000000                . = ALIGN (0x2)
 *(.fartext)
                0x0000000000000000                . = ALIGN (0x2)
 *(.fartext.*)
                0x0000000000000000                _efartext = .

.profiler
 *(.profiler)

.stab           0x0000000000000000    0x1989c
 *(.stab)
 .stab          0x0000000000000000      0x888 hello-world-ctimer.co
 .stab          0x0000000000000888     0x1428 obj_sky/contiki-sky-main.o
                                       0x17a0 (size before relaxing)
 .stab          0x0000000000001cb0      0x264 contiki-sky.a(contiki-sky-pla)
                                        0x5b8 (size before relaxing)
 .stab          0x0000000000001f14      0x468 contiki-sky.a(button-sensor.o)
                                        0x7d4 (size before relaxing)
 .stab          0x000000000000237c      0x630 contiki-sky.a(ds2411.o)
                                        0xb40 (size before relaxing)
 .stab          0x00000000000029ac      0xa38 contiki-sky.a(xmem.o)
                                        0xf60 (size before relaxing)
 .stab          0x00000000000033e4      0x2b8 contiki-sky.a(node-id.o)
                                        0x4e0 (size before relaxing)
 .stab          0x000000000000369c      0x654 contiki-sky.a(sensors.o)
                                        0xb70 (size before relaxing)
 .stab          0x0000000000003cf0     0x2904 contiki-sky.a(cc2420.o)
                                       0x3030 (size before relaxing)
 .stab          0x00000000000065f4      0xb4c contiki-sky.a(cc2420-arch.o)
                                       0x13f8 (size before relaxing)
 .stab          0x0000000000007140      0x60c contiki-sky.a(uart1.o)
                                        0x960 (size before relaxing)
 .stab          0x000000000000774c      0x234 contiki-sky.a(uart1-putchar.o)
                                        0x588 (size before relaxing)
 .stab          0x0000000000007980      0x744 contiki-sky.a(msp430.o)
                                        0xa98 (size before relaxing)
 .stab          0x00000000000080c4      0x948 contiki-sky.a(clock.o)
                                        0xc9c (size before relaxing)
 .stab          0x0000000000008a0c      0x5dc contiki-sky.a(leds.o)
                                        0x828 (size before relaxing)
 .stab          0x0000000000008fe8      0x3a8 contiki-sky.a(leds-arch.o)
                                        0x6fc (size before relaxing)
 .stab          0x0000000000009390      0x3fc contiki-sky.a(watchdog.o)
                                        0x750 (size before relaxing)
 .stab          0x000000000000978c      0x3cc contiki-sky.a(rtimer-arch.o)
                                        0x720 (size before relaxing)
 .stab          0x0000000000009b58      0x294 contiki-sky.a(autostart.o)
                                        0x534 (size before relaxing)
 .stab          0x0000000000009dec      0x474 contiki-sky.a(energest.o)
                                        0x6fc (size before relaxing)
 .stab          0x000000000000a260      0x858 contiki-sky.a(ctimer.o)
                                        0xbc4 (size before relaxing)
 .stab          0x000000000000aab8      0xabc contiki-sky.a(etimer.o)
                                        0xd8c (size before relaxing)
 .stab          0x000000000000b574      0xba0 contiki-sky.a(process.o)
                                       0x1038 (size before relaxing)
 .stab          0x000000000000c114      0x3d8 contiki-sky.a(rtimer.o)
                                        0x6c0 (size before relaxing)
 .stab          0x000000000000c4ec      0x354 contiki-sky.a(timer.o)
                                        0x594 (size before relaxing)
 .stab          0x000000000000c840      0x534 contiki-sky.a(serial-line.o)
                                        0xa50 (size before relaxing)
 .stab          0x000000000000cd74      0x7f8 contiki-sky.a(list.o)
                                        0x804 (size before relaxing)
 .stab          0x000000000000d56c      0x24c contiki-sky.a(random.o)
                                        0x624 (size before relaxing)
 .stab          0x000000000000d7b8      0x3fc contiki-sky.a(ringbuf.o)
                                        0x63c (size before relaxing)
 .stab          0x000000000000dbb4      0xbc4 contiki-sky.a(rime.o)
                                       0x1410 (size before relaxing)
 .stab          0x000000000000e778      0xc24 contiki-sky.a(broadcast-annou)
                                       0x15c0 (size before relaxing)
 .stab          0x000000000000f39c      0x66c contiki-sky.a(abc.o)
                                       0x1494 (size before relaxing)
 .stab          0x000000000000fa08      0x5e8 contiki-sky.a(chameleon.o)
                                       0x123c (size before relaxing)
 .stab          0x000000000000fff0      0x624 contiki-sky.a(channel.o)
                                       0x129c (size before relaxing)
 .stab          0x0000000000010614      0x6d8 contiki-sky.a(broadcast.o)
                                       0x1500 (size before relaxing)
 .stab          0x0000000000010cec      0x6e4 contiki-sky.a(announcement.o)
                                        0x984 (size before relaxing)
 .stab          0x00000000000113d0      0xcf0 contiki-sky.a(csma.o)
                                       0x1680 (size before relaxing)
 .stab          0x00000000000120c0      0x1f8 contiki-sky.a(mac.o)
                                        0x4ec (size before relaxing)
 .stab          0x00000000000122b8      0xa5c contiki-sky.a(queuebuf.o)
                                       0x1884 (size before relaxing)
 .stab          0x0000000000012d14      0xc60 contiki-sky.a(packetbuf.o)
                                       0x1aa0 (size before relaxing)
 .stab          0x0000000000013974      0x2c4 contiki-sky.a(linkaddr.o)
                                        0x6c0 (size before relaxing)
 .stab          0x0000000000013c38     0x1728 contiki-sky.a(contikimac.o)
                                       0x22ec (size before relaxing)
 .stab          0x0000000000015360      0x81c contiki-sky.a(contikimac-fram)
                                        0xe58 (size before relaxing)
 .stab          0x0000000000015b7c      0x3c0 contiki-sky.a(nullsec.o)
                                        0xcf0 (size before relaxing)
 .stab          0x0000000000015f3c      0x204 contiki-sky.a(spi.o)
                                        0x42c (size before relaxing)
 .stab          0x0000000000016140      0x51c contiki-sky.a(compower.o)
                                        0xd20 (size before relaxing)
 .stab          0x000000000001665c      0x5c4 contiki-sky.a(memb.o)
                                        0xaf8 (size before relaxing)
 .stab          0x0000000000016c20      0xd80 contiki-sky.a(chameleon-bitop)
                                       0x19f8 (size before relaxing)
 .stab          0x00000000000179a0      0x630 contiki-sky.a(mac-sequence.o)
                                       0x1470 (size before relaxing)
 .stab          0x0000000000017fd0      0x6f0 contiki-sky.a(framer-802154.o)
                                        0xf30 (size before relaxing)
 .stab          0x00000000000186c0     0x11dc contiki-sky.a(frame802154.o)
                                       0x19c8 (size before relaxing)

.stabstr        0x0000000000000000    0x16132
 *(.stabstr)
 .stabstr       0x0000000000000000    0x16132 hello-world-ctimer.co

.stab.excl
 *(.stab.excl)

.stab.exclstr
 *(.stab.exclstr)

.stab.index
 *(.stab.index)

.stab.indexstr
 *(.stab.indexstr)

.comment
 *(.comment)

.debug
 *(.debug)

.line
 *(.line)

.debug_srcinfo
 *(.debug_srcinfo)

.debug_sfnames
 *(.debug_sfnames)

.debug_aranges  0x0000000000000000      0x168
 *(.debug_aranges)
 .debug_aranges
                0x0000000000000000       0x14 /usr/lib/gcc/msp430/4.6.3/mmpy-16/libgcc.a(_mulsi3.o)
 .debug_aranges
                0x0000000000000014       0x14 /usr/lib/gcc/msp430/4.6.3/mmpy-16/libgcc.a(_udivmod32.o)
 .debug_aranges
                0x0000000000000028       0x14 /usr/lib/gcc/msp430/4.6.3/../../../../msp430/lib/mmpy-16/libc.a(strncmp.o)
 .debug_aranges
                0x000000000000003c       0x14 /usr/lib/gcc/msp430/4.6.3/../../../../msp430/lib/mmpy-16/libc.a(memcmp.o)
 .debug_aranges
                0x0000000000000050       0x14 /usr/lib/gcc/msp430/4.6.3/../../../../msp430/lib/mmpy-16/libc.a(memcpy.o)
 .debug_aranges
                0x0000000000000064       0x14 /usr/lib/gcc/msp430/4.6.3/../../../../msp430/lib/mmpy-16/libc.a(memset.o)
 .debug_aranges
                0x0000000000000078       0x14 /usr/lib/gcc/msp430/4.6.3/../../../../msp430/lib/mmpy-16/libc.a(printf.o)
 .debug_aranges
                0x000000000000008c       0x14 /usr/lib/gcc/msp430/4.6.3/../../../../msp430/lib/mmpy-16/libc.a(vuprintf.o)
 .debug_aranges
                0x00000000000000a0       0x14 /usr/lib/gcc/msp430/4.6.3/../../../../msp430/lib/mmpy-16/libc.a(puts.o)
 .debug_aranges
                0x00000000000000b4       0x14 /usr/lib/gcc/msp430/4.6.3/../../../../msp430/lib/mmpy-16/libc.a(rand.o)
 .debug_aranges
                0x00000000000000c8       0x14 /usr/lib/gcc/msp430/4.6.3/mmpy-16/libgcc.a(_udivmod16.o)
 .debug_aranges
                0x00000000000000dc       0x14 /usr/lib/gcc/msp430/4.6.3/mmpy-16/libgcc.a(_udivmod64.o)
 .debug_aranges
                0x00000000000000f0       0x14 /usr/lib/gcc/msp430/4.6.3/mmpy-16/libcrt0.a(__watchdog_support.o)
 .debug_aranges
                0x0000000000000104       0x14 /usr/lib/gcc/msp430/4.6.3/mmpy-16/libcrt0.a(__init_stack.o)
 .debug_aranges
                0x0000000000000118       0x14 /usr/lib/gcc/msp430/4.6.3/mmpy-16/libcrt0.a(_copy_data.o)
 .debug_aranges
                0x000000000000012c       0x14 /usr/lib/gcc/msp430/4.6.3/mmpy-16/libcrt0.a(_clear_bss.o)
 .debug_aranges
                0x0000000000000140       0x14 /usr/lib/gcc/msp430/4.6.3/mmpy-16/libcrt0.a(_endless_loop__.o)
 .debug_aranges
                0x0000000000000154       0x14 /usr/lib/gcc/msp430/4.6.3/mmpy-16/libcrt0.a(_unexpected_.o)

.debug_pubnames
 *(.debug_pubnames)

.debug_info     0x0000000000000000     0x1477
 *(.debug_info)
 .debug_info    0x0000000000000000       0xec /usr/lib/gcc/msp430/4.6.3/mmpy-16/libgcc.a(_mulsi3.o)
 .debug_info    0x00000000000000ec       0xec /usr/lib/gcc/msp430/4.6.3/mmpy-16/libgcc.a(_udivmod32.o)
 .debug_info    0x00000000000001d8       0xbb /usr/lib/gcc/msp430/4.6.3/../../../../msp430/lib/mmpy-16/libc.a(strncmp.o)
 .debug_info    0x0000000000000293       0xe8 /usr/lib/gcc/msp430/4.6.3/../../../../msp430/lib/mmpy-16/libc.a(memcmp.o)
 .debug_info    0x000000000000037b      0x113 /usr/lib/gcc/msp430/4.6.3/../../../../msp430/lib/mmpy-16/libc.a(memcpy.o)
 .debug_info    0x000000000000048e       0xfe /usr/lib/gcc/msp430/4.6.3/../../../../msp430/lib/mmpy-16/libc.a(memset.o)
 .debug_info    0x000000000000058c      0x105 /usr/lib/gcc/msp430/4.6.3/../../../../msp430/lib/mmpy-16/libc.a(printf.o)
 .debug_info    0x0000000000000691      0x565 /usr/lib/gcc/msp430/4.6.3/../../../../msp430/lib/mmpy-16/libc.a(vuprintf.o)
 .debug_info    0x0000000000000bf6       0x96 /usr/lib/gcc/msp430/4.6.3/../../../../msp430/lib/mmpy-16/libc.a(puts.o)
 .debug_info    0x0000000000000c8c      0x13f /usr/lib/gcc/msp430/4.6.3/../../../../msp430/lib/mmpy-16/libc.a(rand.o)
 .debug_info    0x0000000000000dcb       0xec /usr/lib/gcc/msp430/4.6.3/mmpy-16/libgcc.a(_udivmod16.o)
 .debug_info    0x0000000000000eb7       0xec /usr/lib/gcc/msp430/4.6.3/mmpy-16/libgcc.a(_udivmod64.o)
 .debug_info    0x0000000000000fa3       0xce /usr/lib/gcc/msp430/4.6.3/mmpy-16/libcrt0.a(__watchdog_support.o)
 .debug_info    0x0000000000001071       0xce /usr/lib/gcc/msp430/4.6.3/mmpy-16/libcrt0.a(__init_stack.o)
 .debug_info    0x000000000000113f       0xce /usr/lib/gcc/msp430/4.6.3/mmpy-16/libcrt0.a(_copy_data.o)
 .debug_info    0x000000000000120d       0xce /usr/lib/gcc/msp430/4.6.3/mmpy-16/libcrt0.a(_clear_bss.o)
 .debug_info    0x00000000000012db       0xce /usr/lib/gcc/msp430/4.6.3/mmpy-16/libcrt0.a(_endless_loop__.o)
 .debug_info    0x00000000000013a9       0xce /usr/lib/gcc/msp430/4.6.3/mmpy-16/libcrt0.a(_unexpected_.o)
 *(.gnu.linkonce.wi.*)

.debug_abbrev   0x0000000000000000      0x721
 *(.debug_abbrev)
 .debug_abbrev  0x0000000000000000       0x14 /usr/lib/gcc/msp430/4.6.3/mmpy-16/libgcc.a(_mulsi3.o)
 .debug_abbrev  0x0000000000000014       0x14 /usr/lib/gcc/msp430/4.6.3/mmpy-16/libgcc.a(_udivmod32.o)
 .debug_abbrev  0x0000000000000028       0x7c /usr/lib/gcc/msp430/4.6.3/../../../../msp430/lib/mmpy-16/libc.a(strncmp.o)
 .debug_abbrev  0x00000000000000a4       0x9b /usr/lib/gcc/msp430/4.6.3/../../../../msp430/lib/mmpy-16/libc.a(memcmp.o)
 .debug_abbrev  0x000000000000013f       0x97 /usr/lib/gcc/msp430/4.6.3/../../../../msp430/lib/mmpy-16/libc.a(memcpy.o)
 .debug_abbrev  0x00000000000001d6       0x9c /usr/lib/gcc/msp430/4.6.3/../../../../msp430/lib/mmpy-16/libc.a(memset.o)
 .debug_abbrev  0x0000000000000272       0xd0 /usr/lib/gcc/msp430/4.6.3/../../../../msp430/lib/mmpy-16/libc.a(printf.o)
 .debug_abbrev  0x0000000000000342      0x1ef /usr/lib/gcc/msp430/4.6.3/../../../../msp430/lib/mmpy-16/libc.a(vuprintf.o)
 .debug_abbrev  0x0000000000000531       0x60 /usr/lib/gcc/msp430/4.6.3/../../../../msp430/lib/mmpy-16/libc.a(puts.o)
 .debug_abbrev  0x0000000000000591       0xf0 /usr/lib/gcc/msp430/4.6.3/../../../../msp430/lib/mmpy-16/libc.a(rand.o)
 .debug_abbrev  0x0000000000000681       0x14 /usr/lib/gcc/msp430/4.6.3/mmpy-16/libgcc.a(_udivmod16.o)
 .debug_abbrev  0x0000000000000695       0x14 /usr/lib/gcc/msp430/4.6.3/mmpy-16/libgcc.a(_udivmod64.o)
 .debug_abbrev  0x00000000000006a9       0x14 /usr/lib/gcc/msp430/4.6.3/mmpy-16/libcrt0.a(__watchdog_support.o)
 .debug_abbrev  0x00000000000006bd       0x14 /usr/lib/gcc/msp430/4.6.3/mmpy-16/libcrt0.a(__init_stack.o)
 .debug_abbrev  0x00000000000006d1       0x14 /usr/lib/gcc/msp430/4.6.3/mmpy-16/libcrt0.a(_copy_data.o)
 .debug_abbrev  0x00000000000006e5       0x14 /usr/lib/gcc/msp430/4.6.3/mmpy-16/libcrt0.a(_clear_bss.o)
 .debug_abbrev  0x00000000000006f9       0x14 /usr/lib/gcc/msp430/4.6.3/mmpy-16/libcrt0.a(_endless_loop__.o)
 .debug_abbrev  0x000000000000070d       0x14 /usr/lib/gcc/msp430/4.6.3/mmpy-16/libcrt0.a(_unexpected_.o)

.debug_line     0x0000000000000000      0xcdd
 *(.debug_line)
 .debug_line    0x0000000000000000       0xae /usr/lib/gcc/msp430/4.6.3/mmpy-16/libgcc.a(_mulsi3.o)
 .debug_line    0x00000000000000ae       0xb6 /usr/lib/gcc/msp430/4.6.3/mmpy-16/libgcc.a(_udivmod32.o)
 .debug_line    0x0000000000000164       0x75 /usr/lib/gcc/msp430/4.6.3/../../../../msp430/lib/mmpy-16/libc.a(strncmp.o)
 .debug_line    0x00000000000001d9       0x73 /usr/lib/gcc/msp430/4.6.3/../../../../msp430/lib/mmpy-16/libc.a(memcmp.o)
 .debug_line    0x000000000000024c       0xe9 /usr/lib/gcc/msp430/4.6.3/../../../../msp430/lib/mmpy-16/libc.a(memcpy.o)
 .debug_line    0x0000000000000335       0xc8 /usr/lib/gcc/msp430/4.6.3/../../../../msp430/lib/mmpy-16/libc.a(memset.o)
 .debug_line    0x00000000000003fd       0x72 /usr/lib/gcc/msp430/4.6.3/../../../../msp430/lib/mmpy-16/libc.a(printf.o)
 .debug_line    0x000000000000046f      0x2d2 /usr/lib/gcc/msp430/4.6.3/../../../../msp430/lib/mmpy-16/libc.a(vuprintf.o)
 .debug_line    0x0000000000000741       0x4d /usr/lib/gcc/msp430/4.6.3/../../../../msp430/lib/mmpy-16/libc.a(puts.o)
 .debug_line    0x000000000000078e       0x4f /usr/lib/gcc/msp430/4.6.3/../../../../msp430/lib/mmpy-16/libc.a(rand.o)
 .debug_line    0x00000000000007dd       0xa7 /usr/lib/gcc/msp430/4.6.3/mmpy-16/libgcc.a(_udivmod16.o)
 .debug_line    0x0000000000000884       0xfc /usr/lib/gcc/msp430/4.6.3/mmpy-16/libgcc.a(_udivmod64.o)
 .debug_line    0x0000000000000980       0x8f /usr/lib/gcc/msp430/4.6.3/mmpy-16/libcrt0.a(__watchdog_support.o)
 .debug_line    0x0000000000000a0f       0x8d /usr/lib/gcc/msp430/4.6.3/mmpy-16/libcrt0.a(__init_stack.o)
 .debug_line    0x0000000000000a9c       0x93 /usr/lib/gcc/msp430/4.6.3/mmpy-16/libcrt0.a(_copy_data.o)
 .debug_line    0x0000000000000b2f       0x93 /usr/lib/gcc/msp430/4.6.3/mmpy-16/libcrt0.a(_clear_bss.o)
 .debug_line    0x0000000000000bc2       0x8e /usr/lib/gcc/msp430/4.6.3/mmpy-16/libcrt0.a(_endless_loop__.o)
 .debug_line    0x0000000000000c50       0x8d /usr/lib/gcc/msp430/4.6.3/mmpy-16/libcrt0.a(_unexpected_.o)

.debug_frame    0x0000000000000000      0x1ec
 *(.debug_frame)
 .debug_frame   0x0000000000000000       0x24 /usr/lib/gcc/msp430/4.6.3/../../../../msp430/lib/mmpy-16/libc.a(strncmp.o)
 .debug_frame   0x0000000000000024       0x24 /usr/lib/gcc/msp430/4.6.3/../../../../msp430/lib/mmpy-16/libc.a(memcmp.o)
 .debug_frame   0x0000000000000048       0x38 /usr/lib/gcc/msp430/4.6.3/../../../../msp430/lib/mmpy-16/libc.a(memcpy.o)
 .debug_frame   0x0000000000000080       0x32 /usr/lib/gcc/msp430/4.6.3/../../../../msp430/lib/mmpy-16/libc.a(memset.o)
 .debug_frame   0x00000000000000b2       0x2a /usr/lib/gcc/msp430/4.6.3/../../../../msp430/lib/mmpy-16/libc.a(printf.o)
 .debug_frame   0x00000000000000dc       0xb0 /usr/lib/gcc/msp430/4.6.3/../../../../msp430/lib/mmpy-16/libc.a(vuprintf.o)
 .debug_frame   0x000000000000018c       0x24 /usr/lib/gcc/msp430/4.6.3/../../../../msp430/lib/mmpy-16/libc.a(puts.o)
 .debug_frame   0x00000000000001b0       0x3c /usr/lib/gcc/msp430/4.6.3/../../../../msp430/lib/mmpy-16/libc.a(rand.o)

.debug_str      0x0000000000000000      0x3e8
 *(.debug_str)
 .debug_str     0x0000000000000000       0xd0 /usr/lib/gcc/msp430/4.6.3/../../../../msp430/lib/mmpy-16/libc.a(strncmp.o)
                                        0x109 (size before relaxing)
 .debug_str     0x00000000000000d0       0x19 /usr/lib/gcc/msp430/4.6.3/../../../../msp430/lib/mmpy-16/libc.a(memcmp.o)
                                        0x107 (size before relaxing)
 .debug_str     0x00000000000000e9       0x34 /usr/lib/gcc/msp430/4.6.3/../../../../msp430/lib/mmpy-16/libc.a(memcpy.o)
                                        0x122 (size before relaxing)
 .debug_str     0x000000000000011d       0x26 /usr/lib/gcc/msp430/4.6.3/../../../../msp430/lib/mmpy-16/libc.a(memset.o)
                                        0x120 (size before relaxing)
 .debug_str     0x0000000000000143       0x40 /usr/lib/gcc/msp430/4.6.3/../../../../msp430/lib/mmpy-16/libc.a(printf.o)
                                        0x136 (size before relaxing)
 .debug_str     0x0000000000000183      0x221 /usr/lib/gcc/msp430/4.6.3/../../../../msp430/lib/mmpy-16/libc.a(vuprintf.o)
                                        0x381 (size before relaxing)
 .debug_str     0x00000000000003a4       0x15 /usr/lib/gcc/msp430/4.6.3/../../../../msp430/lib/mmpy-16/libc.a(puts.o)
                                         0xfc (size before relaxing)
 .debug_str     0x00000000000003b9       0x2f /usr/lib/gcc/msp430/4.6.3/../../../../msp430/lib/mmpy-16/libc.a(rand.o)
                                        0x11b (size before relaxing)

.debug_loc      0x0000000000000000      0xaf3
 *(.debug_loc)
 .debug_loc     0x0000000000000000       0x38 /usr/lib/gcc/msp430/4.6.3/../../../../msp430/lib/mmpy-16/libc.a(strncmp.o)
 .debug_loc     0x0000000000000038       0x5e /usr/lib/gcc/msp430/4.6.3/../../../../msp430/lib/mmpy-16/libc.a(memcmp.o)
 .debug_loc     0x0000000000000096      0x1f0 /usr/lib/gcc/msp430/4.6.3/../../../../msp430/lib/mmpy-16/libc.a(memcpy.o)
 .debug_loc     0x0000000000000286       0xdb /usr/lib/gcc/msp430/4.6.3/../../../../msp430/lib/mmpy-16/libc.a(memset.o)
 .debug_loc     0x0000000000000361       0x38 /usr/lib/gcc/msp430/4.6.3/../../../../msp430/lib/mmpy-16/libc.a(printf.o)
 .debug_loc     0x0000000000000399      0x705 /usr/lib/gcc/msp430/4.6.3/../../../../msp430/lib/mmpy-16/libc.a(vuprintf.o)
 .debug_loc     0x0000000000000a9e       0x26 /usr/lib/gcc/msp430/4.6.3/../../../../msp430/lib/mmpy-16/libc.a(puts.o)
 .debug_loc     0x0000000000000ac4       0x2f /usr/lib/gcc/msp430/4.6.3/../../../../msp430/lib/mmpy-16/libc.a(rand.o)

.debug_macinfo
 *(.debug_macinfo)

.debug_pubtypes
 *(.debug_pubtypes)

.debug_ranges   0x0000000000000000       0x18
 *(.debug_ranges)
 .debug_ranges  0x0000000000000000       0x18 /usr/lib/gcc/msp430/4.6.3/../../../../msp430/lib/mmpy-16/libc.a(vuprintf.o)
                0x0000000000003900                PROVIDE (__stack, (ORIGIN (ram) + 0x2800))
                0x000000000000935e                PROVIDE (__data_start_rom, _etext)
                0x00000000000093d0                PROVIDE (__data_end_rom, (_etext + SIZEOF (.data)))
OUTPUT(hello-world-ctimer.sky elf32-msp430)
